
vuln:     file format elf64-x86-64


Disassembly of section .init:

0000000000401000 <_init>:
  401000:	f3 0f 1e fa          	endbr64
  401004:	48 83 ec 08          	sub    $0x8,%rsp
  401008:	48 8b 05 e9 2f 00 00 	mov    0x2fe9(%rip),%rax        # 403ff8 <__gmon_start__@Base>
  40100f:	48 85 c0             	test   %rax,%rax
  401012:	74 02                	je     401016 <_init+0x16>
  401014:	ff d0                	call   *%rax
  401016:	48 83 c4 08          	add    $0x8,%rsp
  40101a:	c3                   	ret

Disassembly of section .plt:

0000000000401020 <.plt>:
  401020:	ff 35 e2 2f 00 00    	push   0x2fe2(%rip)        # 404008 <_GLOBAL_OFFSET_TABLE_+0x8>
  401026:	f2 ff 25 e3 2f 00 00 	bnd jmp *0x2fe3(%rip)        # 404010 <_GLOBAL_OFFSET_TABLE_+0x10>
  40102d:	0f 1f 00             	nopl   (%rax)
  401030:	f3 0f 1e fa          	endbr64
  401034:	68 00 00 00 00       	push   $0x0
  401039:	f2 e9 e1 ff ff ff    	bnd jmp 401020 <_init+0x20>
  40103f:	90                   	nop
  401040:	f3 0f 1e fa          	endbr64
  401044:	68 01 00 00 00       	push   $0x1
  401049:	f2 e9 d1 ff ff ff    	bnd jmp 401020 <_init+0x20>
  40104f:	90                   	nop
  401050:	f3 0f 1e fa          	endbr64
  401054:	68 02 00 00 00       	push   $0x2
  401059:	f2 e9 c1 ff ff ff    	bnd jmp 401020 <_init+0x20>
  40105f:	90                   	nop
  401060:	f3 0f 1e fa          	endbr64
  401064:	68 03 00 00 00       	push   $0x3
  401069:	f2 e9 b1 ff ff ff    	bnd jmp 401020 <_init+0x20>
  40106f:	90                   	nop
  401070:	f3 0f 1e fa          	endbr64
  401074:	68 04 00 00 00       	push   $0x4
  401079:	f2 e9 a1 ff ff ff    	bnd jmp 401020 <_init+0x20>
  40107f:	90                   	nop
  401080:	f3 0f 1e fa          	endbr64
  401084:	68 05 00 00 00       	push   $0x5
  401089:	f2 e9 91 ff ff ff    	bnd jmp 401020 <_init+0x20>
  40108f:	90                   	nop
  401090:	f3 0f 1e fa          	endbr64
  401094:	68 06 00 00 00       	push   $0x6
  401099:	f2 e9 81 ff ff ff    	bnd jmp 401020 <_init+0x20>
  40109f:	90                   	nop

Disassembly of section .plt.sec:

00000000004010a0 <putchar@plt>:
  4010a0:	f3 0f 1e fa          	endbr64
  4010a4:	f2 ff 25 6d 2f 00 00 	bnd jmp *0x2f6d(%rip)        # 404018 <putchar@GLIBC_2.2.5>
  4010ab:	0f 1f 44 00 00       	nopl   0x0(%rax,%rax,1)

00000000004010b0 <puts@plt>:
  4010b0:	f3 0f 1e fa          	endbr64
  4010b4:	f2 ff 25 65 2f 00 00 	bnd jmp *0x2f65(%rip)        # 404020 <puts@GLIBC_2.2.5>
  4010bb:	0f 1f 44 00 00       	nopl   0x0(%rax,%rax,1)

00000000004010c0 <printf@plt>:
  4010c0:	f3 0f 1e fa          	endbr64
  4010c4:	f2 ff 25 5d 2f 00 00 	bnd jmp *0x2f5d(%rip)        # 404028 <printf@GLIBC_2.2.5>
  4010cb:	0f 1f 44 00 00       	nopl   0x0(%rax,%rax,1)

00000000004010d0 <fgets@plt>:
  4010d0:	f3 0f 1e fa          	endbr64
  4010d4:	f2 ff 25 55 2f 00 00 	bnd jmp *0x2f55(%rip)        # 404030 <fgets@GLIBC_2.2.5>
  4010db:	0f 1f 44 00 00       	nopl   0x0(%rax,%rax,1)

00000000004010e0 <fflush@plt>:
  4010e0:	f3 0f 1e fa          	endbr64
  4010e4:	f2 ff 25 4d 2f 00 00 	bnd jmp *0x2f4d(%rip)        # 404038 <fflush@GLIBC_2.2.5>
  4010eb:	0f 1f 44 00 00       	nopl   0x0(%rax,%rax,1)

00000000004010f0 <fopen@plt>:
  4010f0:	f3 0f 1e fa          	endbr64
  4010f4:	f2 ff 25 45 2f 00 00 	bnd jmp *0x2f45(%rip)        # 404040 <fopen@GLIBC_2.2.5>
  4010fb:	0f 1f 44 00 00       	nopl   0x0(%rax,%rax,1)

0000000000401100 <__isoc99_scanf@plt>:
  401100:	f3 0f 1e fa          	endbr64
  401104:	f2 ff 25 3d 2f 00 00 	bnd jmp *0x2f3d(%rip)        # 404048 <__isoc99_scanf@GLIBC_2.7>
  40110b:	0f 1f 44 00 00       	nopl   0x0(%rax,%rax,1)

Disassembly of section .text:

0000000000401110 <_start>:
  401110:	f3 0f 1e fa          	endbr64
  401114:	31 ed                	xor    %ebp,%ebp
  401116:	49 89 d1             	mov    %rdx,%r9
  401119:	5e                   	pop    %rsi
  40111a:	48 89 e2             	mov    %rsp,%rdx
  40111d:	48 83 e4 f0          	and    $0xfffffffffffffff0,%rsp
  401121:	50                   	push   %rax
  401122:	54                   	push   %rsp
  401123:	45 31 c0             	xor    %r8d,%r8d
  401126:	31 c9                	xor    %ecx,%ecx
  401128:	48 c7 c7 f6 11 40 00 	mov    $0x4011f6,%rdi
  40112f:	ff 15 bb 2e 00 00    	call   *0x2ebb(%rip)        # 403ff0 <__libc_start_main@GLIBC_2.34>
  401135:	f4                   	hlt
  401136:	66 2e 0f 1f 84 00 00 	cs nopw 0x0(%rax,%rax,1)
  40113d:	00 00 00 

0000000000401140 <_dl_relocate_static_pie>:
  401140:	f3 0f 1e fa          	endbr64
  401144:	c3                   	ret
  401145:	66 2e 0f 1f 84 00 00 	cs nopw 0x0(%rax,%rax,1)
  40114c:	00 00 00 
  40114f:	90                   	nop

0000000000401150 <deregister_tm_clones>:
  401150:	b8 68 40 40 00       	mov    $0x404068,%eax
  401155:	48 3d 68 40 40 00    	cmp    $0x404068,%rax
  40115b:	74 13                	je     401170 <deregister_tm_clones+0x20>
  40115d:	b8 00 00 00 00       	mov    $0x0,%eax
  401162:	48 85 c0             	test   %rax,%rax
  401165:	74 09                	je     401170 <deregister_tm_clones+0x20>
  401167:	bf 68 40 40 00       	mov    $0x404068,%edi
  40116c:	ff e0                	jmp    *%rax
  40116e:	66 90                	xchg   %ax,%ax
  401170:	c3                   	ret
  401171:	66 66 2e 0f 1f 84 00 	data16 cs nopw 0x0(%rax,%rax,1)
  401178:	00 00 00 00 
  40117c:	0f 1f 40 00          	nopl   0x0(%rax)

0000000000401180 <register_tm_clones>:
  401180:	be 68 40 40 00       	mov    $0x404068,%esi
  401185:	48 81 ee 68 40 40 00 	sub    $0x404068,%rsi
  40118c:	48 89 f0             	mov    %rsi,%rax
  40118f:	48 c1 ee 3f          	shr    $0x3f,%rsi
  401193:	48 c1 f8 03          	sar    $0x3,%rax
  401197:	48 01 c6             	add    %rax,%rsi
  40119a:	48 d1 fe             	sar    $1,%rsi
  40119d:	74 11                	je     4011b0 <register_tm_clones+0x30>
  40119f:	b8 00 00 00 00       	mov    $0x0,%eax
  4011a4:	48 85 c0             	test   %rax,%rax
  4011a7:	74 07                	je     4011b0 <register_tm_clones+0x30>
  4011a9:	bf 68 40 40 00       	mov    $0x404068,%edi
  4011ae:	ff e0                	jmp    *%rax
  4011b0:	c3                   	ret
  4011b1:	66 66 2e 0f 1f 84 00 	data16 cs nopw 0x0(%rax,%rax,1)
  4011b8:	00 00 00 00 
  4011bc:	0f 1f 40 00          	nopl   0x0(%rax)

00000000004011c0 <__do_global_dtors_aux>:
  4011c0:	f3 0f 1e fa          	endbr64
  4011c4:	80 3d a5 2e 00 00 00 	cmpb   $0x0,0x2ea5(%rip)        # 404070 <completed.0>
  4011cb:	75 13                	jne    4011e0 <__do_global_dtors_aux+0x20>
  4011cd:	55                   	push   %rbp
  4011ce:	48 89 e5             	mov    %rsp,%rbp
  4011d1:	e8 7a ff ff ff       	call   401150 <deregister_tm_clones>
  4011d6:	c6 05 93 2e 00 00 01 	movb   $0x1,0x2e93(%rip)        # 404070 <completed.0>
  4011dd:	5d                   	pop    %rbp
  4011de:	c3                   	ret
  4011df:	90                   	nop
  4011e0:	c3                   	ret
  4011e1:	66 66 2e 0f 1f 84 00 	data16 cs nopw 0x0(%rax,%rax,1)
  4011e8:	00 00 00 00 
  4011ec:	0f 1f 40 00          	nopl   0x0(%rax)

00000000004011f0 <frame_dummy>:
  4011f0:	f3 0f 1e fa          	endbr64
  4011f4:	eb 8a                	jmp    401180 <register_tm_clones>

00000000004011f6 <main>:
  4011f6:	f3 0f 1e fa          	endbr64
  4011fa:	55                   	push   %rbp
  4011fb:	48 89 e5             	mov    %rsp,%rbp
  4011fe:	48 81 ec 50 04 00 00 	sub    $0x450,%rsp
  401205:	bf 08 20 40 00       	mov    $0x402008,%edi
  40120a:	e8 a1 fe ff ff       	call   4010b0 <puts@plt>
  40120f:	48 8b 05 52 2e 00 00 	mov    0x2e52(%rip),%rax        # 404068 <stdout@GLIBC_2.2.5>
  401216:	48 89 c7             	mov    %rax,%rdi
  401219:	e8 c2 fe ff ff       	call   4010e0 <fflush@plt>
  40121e:	48 8d 85 f0 fb ff ff 	lea    -0x410(%rbp),%rax
  401225:	48 89 c6             	mov    %rax,%rsi
  401228:	bf 6e 20 40 00       	mov    $0x40206e,%edi
  40122d:	b8 00 00 00 00       	mov    $0x0,%eax
  401232:	e8 c9 fe ff ff       	call   401100 <__isoc99_scanf@plt>
  401237:	bf 75 20 40 00       	mov    $0x402075,%edi
  40123c:	b8 00 00 00 00       	mov    $0x0,%eax
  401241:	e8 7a fe ff ff       	call   4010c0 <printf@plt>
  401246:	48 8d 85 f0 fb ff ff 	lea    -0x410(%rbp),%rax
  40124d:	48 89 c7             	mov    %rax,%rdi
  401250:	b8 00 00 00 00       	mov    $0x0,%eax
  401255:	e8 66 fe ff ff       	call   4010c0 <printf@plt>
  40125a:	bf 0a 00 00 00       	mov    $0xa,%edi
  40125f:	e8 3c fe ff ff       	call   4010a0 <putchar@plt>
  401264:	48 8b 05 fd 2d 00 00 	mov    0x2dfd(%rip),%rax        # 404068 <stdout@GLIBC_2.2.5>
  40126b:	48 89 c7             	mov    %rax,%rdi
  40126e:	e8 6d fe ff ff       	call   4010e0 <fflush@plt>
  401273:	8b 05 e7 2d 00 00    	mov    0x2de7(%rip),%eax        # 404060 <sus>
  401279:	3d 66 6c 61 67       	cmp    $0x67616c66,%eax
  40127e:	75 5f                	jne    4012df <main+0xe9>
  401280:	bf 90 20 40 00       	mov    $0x402090,%edi
  401285:	e8 26 fe ff ff       	call   4010b0 <puts@plt>
  40128a:	be d6 20 40 00       	mov    $0x4020d6,%esi
  40128f:	bf d8 20 40 00       	mov    $0x4020d8,%edi
  401294:	e8 57 fe ff ff       	call   4010f0 <fopen@plt>
  401299:	48 89 45 f8          	mov    %rax,-0x8(%rbp)
  40129d:	48 8b 55 f8          	mov    -0x8(%rbp),%rdx
  4012a1:	48 8d 85 b0 fb ff ff 	lea    -0x450(%rbp),%rax
  4012a8:	be 40 00 00 00       	mov    $0x40,%esi
  4012ad:	48 89 c7             	mov    %rax,%rdi
  4012b0:	e8 1b fe ff ff       	call   4010d0 <fgets@plt>
  4012b5:	48 8d 85 b0 fb ff ff 	lea    -0x450(%rbp),%rax
  4012bc:	48 89 c6             	mov    %rax,%rsi
  4012bf:	bf e1 20 40 00       	mov    $0x4020e1,%edi
  4012c4:	b8 00 00 00 00       	mov    $0x0,%eax
  4012c9:	e8 f2 fd ff ff       	call   4010c0 <printf@plt>
  4012ce:	48 8b 05 93 2d 00 00 	mov    0x2d93(%rip),%rax        # 404068 <stdout@GLIBC_2.2.5>
  4012d5:	48 89 c7             	mov    %rax,%rdi
  4012d8:	e8 03 fe ff ff       	call   4010e0 <fflush@plt>
  4012dd:	eb 30                	jmp    40130f <main+0x119>
  4012df:	8b 05 7b 2d 00 00    	mov    0x2d7b(%rip),%eax        # 404060 <sus>
  4012e5:	89 c6                	mov    %eax,%esi
  4012e7:	bf e4 20 40 00       	mov    $0x4020e4,%edi
  4012ec:	b8 00 00 00 00       	mov    $0x0,%eax
  4012f1:	e8 ca fd ff ff       	call   4010c0 <printf@plt>
  4012f6:	bf f0 20 40 00       	mov    $0x4020f0,%edi
  4012fb:	e8 b0 fd ff ff       	call   4010b0 <puts@plt>
  401300:	48 8b 05 61 2d 00 00 	mov    0x2d61(%rip),%rax        # 404068 <stdout@GLIBC_2.2.5>
  401307:	48 89 c7             	mov    %rax,%rdi
  40130a:	e8 d1 fd ff ff       	call   4010e0 <fflush@plt>
  40130f:	b8 00 00 00 00       	mov    $0x0,%eax
  401314:	c9                   	leave
  401315:	c3                   	ret

Disassembly of section .fini:

0000000000401318 <_fini>:
  401318:	f3 0f 1e fa          	endbr64
  40131c:	48 83 ec 08          	sub    $0x8,%rsp
  401320:	48 83 c4 08          	add    $0x8,%rsp
  401324:	c3                   	ret
