
ld-linux-x86-64.so.2:     file format elf64-x86-64


Disassembly of section .relr.dyn:

0000000000000ea0 <.relr.dyn>:
 ea0:	10 17                	adc    %dl,(%rdi)
 ea2:	03 00                	add    (%rax),%eax
 ea4:	00 00                	add    %al,(%rax)
 ea6:	00 00                	add    %al,(%rax)
 ea8:	e0 2d                	loopne ed7 <GLIBC_2.2.5@@GLIBC_2.2.5+0xed7>
 eaa:	03 00                	add    (%rax),%eax
 eac:	00 00                	add    %al,(%rax)
 eae:	00 00                	add    %al,(%rax)
 eb0:	ff 01                	incl   (%rcx)
 eb2:	00 00                	add    %al,(%rax)
 eb4:	00 00                	add    %al,(%rax)
	...

Disassembly of section .text:

0000000000001000 <_dl_signal_exception@@GLIBC_PRIVATE-0x1e0>:
    1000:	f3 0f 1e fa          	endbr64
    1004:	48 85 ff             	test   %rdi,%rdi
    1007:	74 4f                	je     1058 <GLIBC_2.2.5@@GLIBC_2.2.5+0x1058>
    1009:	55                   	push   %rbp
    100a:	41 b8 85 cf 63 09    	mov    $0x963cf85,%r8d
    1010:	89 f5                	mov    %esi,%ebp
    1012:	48 8d 0d 7c 78 02 00 	lea    0x2787c(%rip),%rcx        # 28895 <__rtld_version_placeholder@GLIBC_2.34+0x2025>
    1019:	53                   	push   %rbx
    101a:	ba ac 82 96 06       	mov    $0x69682ac,%edx
    101f:	48 8d 35 7d 78 02 00 	lea    0x2787d(%rip),%rsi        # 288a3 <__rtld_version_placeholder@GLIBC_2.34+0x2033>
    1026:	48 89 fb             	mov    %rdi,%rbx
    1029:	48 83 ec 08          	sub    $0x8,%rsp
    102d:	e8 fe 9a 00 00       	call   ab30 <_dl_rtld_di_serinfo@@GLIBC_PRIVATE+0x1b90>
    1032:	48 85 c0             	test   %rax,%rax
    1035:	74 2d                	je     1064 <GLIBC_2.2.5@@GLIBC_2.2.5+0x1064>
    1037:	66 83 78 06 f1       	cmpw   $0xfff1,0x6(%rax)
    103c:	74 22                	je     1060 <GLIBC_2.2.5@@GLIBC_2.2.5+0x1060>
    103e:	48 8b 13             	mov    (%rbx),%rdx
    1041:	48 03 50 08          	add    0x8(%rax),%rdx
    1045:	48 83 c4 08          	add    $0x8,%rsp
    1049:	40 0f b6 fd          	movzbl %bpl,%edi
    104d:	5b                   	pop    %rbx
    104e:	5d                   	pop    %rbp
    104f:	ff e2                	jmp    *%rdx
    1051:	0f 1f 80 00 00 00 00 	nopl   0x0(%rax)
    1058:	c3                   	ret
    1059:	0f 1f 80 00 00 00 00 	nopl   0x0(%rax)
    1060:	31 d2                	xor    %edx,%edx
    1062:	eb dd                	jmp    1041 <GLIBC_2.2.5@@GLIBC_2.2.5+0x1041>
    1064:	48 8d 0d 55 8d 02 00 	lea    0x28d55(%rip),%rcx        # 29dc0 <__rtld_version_placeholder@GLIBC_2.34+0x3550>
    106b:	ba 25 00 00 00       	mov    $0x25,%edx
    1070:	48 8d 35 3e 78 02 00 	lea    0x2783e(%rip),%rsi        # 288b5 <__rtld_version_placeholder@GLIBC_2.34+0x2045>
    1077:	48 8d 3d 51 78 02 00 	lea    0x27851(%rip),%rdi        # 288cf <__rtld_version_placeholder@GLIBC_2.34+0x205f>
    107e:	e8 2d 89 01 00       	call   199b0 <_dl_audit_symbind_alt@@GLIBC_PRIVATE+0x1e60>
    1083:	66 2e 0f 1f 84 00 00 	cs nopw 0x0(%rax,%rax,1)
    108a:	00 00 00 
    108d:	0f 1f 00             	nopl   (%rax)
    1090:	f3 0f 1e fa          	endbr64
    1094:	41 54                	push   %r12
    1096:	55                   	push   %rbp
    1097:	48 89 fd             	mov    %rdi,%rbp
    109a:	53                   	push   %rbx
    109b:	f6 05 1e 1a 03 00 02 	testb  $0x2,0x31a1e(%rip)        # 32ac0 <_rtld_global_ro@@GLIBC_PRIVATE>
    10a2:	75 74                	jne    1118 <GLIBC_2.2.5@@GLIBC_2.2.5+0x1118>
    10a4:	48 8b 85 10 01 00 00 	mov    0x110(%rbp),%rax
    10ab:	80 a5 34 03 00 00 ef 	andb   $0xef,0x334(%rbp)
    10b2:	48 85 c0             	test   %rax,%rax
    10b5:	74 37                	je     10ee <GLIBC_2.2.5@@GLIBC_2.2.5+0x10ee>
    10b7:	4c 8b 60 08          	mov    0x8(%rax),%r12
    10bb:	48 8b 85 20 01 00 00 	mov    0x120(%rbp),%rax
    10c2:	4c 03 65 00          	add    0x0(%rbp),%r12
    10c6:	48 8b 40 08          	mov    0x8(%rax),%rax
    10ca:	48 c1 e8 03          	shr    $0x3,%rax
    10ce:	48 8d 50 ff          	lea    -0x1(%rax),%rdx
    10d2:	74 1a                	je     10ee <GLIBC_2.2.5@@GLIBC_2.2.5+0x10ee>
    10d4:	49 8d 1c d4          	lea    (%r12,%rdx,8),%rbx
    10d8:	0f 1f 84 00 00 00 00 	nopl   0x0(%rax,%rax,1)
    10df:	00 
    10e0:	ff 13                	call   *(%rbx)
    10e2:	48 89 d8             	mov    %rbx,%rax
    10e5:	48 83 eb 08          	sub    $0x8,%rbx
    10e9:	49 39 c4             	cmp    %rax,%r12
    10ec:	75 f2                	jne    10e0 <GLIBC_2.2.5@@GLIBC_2.2.5+0x10e0>
    10ee:	48 8b 95 a8 00 00 00 	mov    0xa8(%rbp),%rdx
    10f5:	48 85 d2             	test   %rdx,%rdx
    10f8:	74 16                	je     1110 <GLIBC_2.2.5@@GLIBC_2.2.5+0x1110>
    10fa:	48 8b 45 00          	mov    0x0(%rbp),%rax
    10fe:	5b                   	pop    %rbx
    10ff:	48 03 42 08          	add    0x8(%rdx),%rax
    1103:	5d                   	pop    %rbp
    1104:	41 5c                	pop    %r12
    1106:	ff e0                	jmp    *%rax
    1108:	0f 1f 84 00 00 00 00 	nopl   0x0(%rax,%rax,1)
    110f:	00 
    1110:	5b                   	pop    %rbx
    1111:	5d                   	pop    %rbp
    1112:	41 5c                	pop    %r12
    1114:	c3                   	ret
    1115:	0f 1f 00             	nopl   (%rax)
    1118:	48 8b 57 30          	mov    0x30(%rdi),%rdx
    111c:	48 8b 77 08          	mov    0x8(%rdi),%rsi
    1120:	31 c0                	xor    %eax,%eax
    1122:	48 8d 3d b2 77 02 00 	lea    0x277b2(%rip),%rdi        # 288db <__rtld_version_placeholder@GLIBC_2.34+0x206b>
    1129:	e8 a2 c0 00 00       	call   d1d0 <_dl_find_dso_for_object@@GLIBC_PRIVATE+0x1760>
    112e:	e9 71 ff ff ff       	jmp    10a4 <GLIBC_2.2.5@@GLIBC_2.2.5+0x10a4>
    1133:	66 2e 0f 1f 84 00 00 	cs nopw 0x0(%rax,%rax,1)
    113a:	00 00 00 
    113d:	0f 1f 00             	nopl   (%rax)
    1140:	55                   	push   %rbp
    1141:	48 8d 05 67 8b 02 00 	lea    0x28b67(%rip),%rax        # 29caf <__rtld_version_placeholder@GLIBC_2.34+0x343f>
    1148:	48 89 f5             	mov    %rsi,%rbp
    114b:	49 89 c9             	mov    %rcx,%r9
    114e:	53                   	push   %rbx
    114f:	48 89 d3             	mov    %rdx,%rbx
    1152:	48 89 c2             	mov    %rax,%rdx
    1155:	48 81 ec 18 04 00 00 	sub    $0x418,%rsp
    115c:	85 ff                	test   %edi,%edi
    115e:	75 52                	jne    11b2 <GLIBC_2.2.5@@GLIBC_2.2.5+0x11b2>
    1160:	80 7d 00 00          	cmpb   $0x0,0x0(%rbp)
    1164:	48 8d 0d 28 7f 02 00 	lea    0x27f28(%rip),%rcx        # 29093 <__rtld_version_placeholder@GLIBC_2.34+0x2823>
    116b:	4c 8d 05 3d 8b 02 00 	lea    0x28b3d(%rip),%r8        # 29caf <__rtld_version_placeholder@GLIBC_2.34+0x343f>
    1172:	4c 0f 45 c1          	cmovne %rcx,%r8
    1176:	48 85 db             	test   %rbx,%rbx
    1179:	48 8d 0d 28 91 02 00 	lea    0x29128(%rip),%rcx        # 2a2a8 <__rtld_version_placeholder@GLIBC_2.34+0x3a38>
    1180:	48 0f 44 d9          	cmove  %rcx,%rbx
    1184:	48 8b 0d 0d 19 03 00 	mov    0x3190d(%rip),%rcx        # 32a98 <_dl_argv@@GLIBC_PRIVATE>
    118b:	48 8d 3d 7a 77 02 00 	lea    0x2777a(%rip),%rdi        # 2890c <__rtld_version_placeholder@GLIBC_2.34+0x209c>
    1192:	48 8b 31             	mov    (%rcx),%rsi
    1195:	50                   	push   %rax
    1196:	48 8d 0d 58 77 02 00 	lea    0x27758(%rip),%rcx        # 288f5 <__rtld_version_placeholder@GLIBC_2.34+0x2085>
    119d:	52                   	push   %rdx
    119e:	48 89 da             	mov    %rbx,%rdx
    11a1:	48 85 f6             	test   %rsi,%rsi
    11a4:	48 0f 44 f1          	cmove  %rcx,%rsi
    11a8:	48 89 e9             	mov    %rbp,%rcx
    11ab:	31 c0                	xor    %eax,%eax
    11ad:	e8 7e c3 00 00       	call   d530 <_dl_fatal_printf@@GLIBC_PRIVATE>
    11b2:	ba 00 04 00 00       	mov    $0x400,%edx
    11b7:	48 8d 74 24 10       	lea    0x10(%rsp),%rsi
    11bc:	48 89 4c 24 08       	mov    %rcx,0x8(%rsp)
    11c1:	e8 ba 86 01 00       	call   19880 <_dl_audit_symbind_alt@@GLIBC_PRIVATE+0x1d30>
    11c6:	4c 8b 4c 24 08       	mov    0x8(%rsp),%r9
    11cb:	48 8d 15 c1 7e 02 00 	lea    0x27ec1(%rip),%rdx        # 29093 <__rtld_version_placeholder@GLIBC_2.34+0x2823>
    11d2:	eb 8c                	jmp    1160 <GLIBC_2.2.5@@GLIBC_2.2.5+0x1160>
    11d4:	66 66 2e 0f 1f 84 00 	data16 cs nopw 0x0(%rax,%rax,1)
    11db:	00 00 00 00 
    11df:	90                   	nop

00000000000011e0 <_dl_signal_exception@@GLIBC_PRIVATE>:
    11e0:	f3 0f 1e fa          	endbr64
    11e4:	50                   	push   %rax
    11e5:	58                   	pop    %rax
    11e6:	48 83 ec 08          	sub    $0x8,%rsp
    11ea:	80 3d 2f 30 03 00 00 	cmpb   $0x0,0x3302f(%rip)        # 34220 <__nptl_initial_report_events@@GLIBC_PRIVATE+0x50>
    11f1:	48 8b 05 00 2f 03 00 	mov    0x32f00(%rip),%rax        # 340f8 <_rtld_global@@GLIBC_PRIVATE+0x10f8>
    11f8:	74 09                	je     1203 <_dl_signal_exception@@GLIBC_PRIVATE+0x23>
    11fa:	64 48 8b 04 25 f8 08 	mov    %fs:0x8f8,%rax
    1201:	00 00 
    1203:	48 85 c0             	test   %rax,%rax
    1206:	74 26                	je     122e <_dl_signal_exception@@GLIBC_PRIVATE+0x4e>
    1208:	48 8b 10             	mov    (%rax),%rdx
    120b:	f3 0f 6f 06          	movdqu (%rsi),%xmm0
    120f:	0f 11 02             	movups %xmm0,(%rdx)
    1212:	48 8b 4e 10          	mov    0x10(%rsi),%rcx
    1216:	be 01 00 00 00       	mov    $0x1,%esi
    121b:	48 89 4a 10          	mov    %rcx,0x10(%rdx)
    121f:	48 8b 50 08          	mov    0x8(%rax),%rdx
    1223:	89 3a                	mov    %edi,(%rdx)
    1225:	48 8d 78 10          	lea    0x10(%rax),%rdi
    1229:	e8 52 05 02 00       	call   21780 <_dl_audit_symbind_alt@@GLIBC_PRIVATE+0x9c30>
    122e:	48 8b 4e 08          	mov    0x8(%rsi),%rcx
    1232:	48 8b 36             	mov    (%rsi),%rsi
    1235:	e8 06 ff ff ff       	call   1140 <GLIBC_2.2.5@@GLIBC_2.2.5+0x1140>
    123a:	66 0f 1f 44 00 00    	nopw   0x0(%rax,%rax,1)

0000000000001240 <_dl_signal_error@@GLIBC_PRIVATE>:
    1240:	f3 0f 1e fa          	endbr64
    1244:	55                   	push   %rbp
    1245:	48 89 d0             	mov    %rdx,%rax
    1248:	89 fd                	mov    %edi,%ebp
    124a:	48 89 ca             	mov    %rcx,%rdx
    124d:	53                   	push   %rbx
    124e:	48 83 ec 08          	sub    $0x8,%rsp
    1252:	80 3d c7 2f 03 00 00 	cmpb   $0x0,0x32fc7(%rip)        # 34220 <__nptl_initial_report_events@@GLIBC_PRIVATE+0x50>
    1259:	48 8b 1d 98 2e 03 00 	mov    0x32e98(%rip),%rbx        # 340f8 <_rtld_global@@GLIBC_PRIVATE+0x10f8>
    1260:	74 09                	je     126b <_dl_signal_error@@GLIBC_PRIVATE+0x2b>
    1262:	64 48 8b 1c 25 f8 08 	mov    %fs:0x8f8,%rbx
    1269:	00 00 
    126b:	48 85 d2             	test   %rdx,%rdx
    126e:	48 8d 0d ab 76 02 00 	lea    0x276ab(%rip),%rcx        # 28920 <__rtld_version_placeholder@GLIBC_2.34+0x20b0>
    1275:	48 0f 44 d1          	cmove  %rcx,%rdx
    1279:	48 85 db             	test   %rbx,%rbx
    127c:	74 1c                	je     129a <_dl_signal_error@@GLIBC_PRIVATE+0x5a>
    127e:	48 8b 3b             	mov    (%rbx),%rdi
    1281:	e8 3a 25 00 00       	call   37c0 <_dl_exception_create@@GLIBC_PRIVATE>
    1286:	48 8b 43 08          	mov    0x8(%rbx),%rax
    128a:	48 8d 7b 10          	lea    0x10(%rbx),%rdi
    128e:	be 01 00 00 00       	mov    $0x1,%esi
    1293:	89 28                	mov    %ebp,(%rax)
    1295:	e8 e6 04 02 00       	call   21780 <_dl_audit_symbind_alt@@GLIBC_PRIVATE+0x9c30>
    129a:	48 89 d1             	mov    %rdx,%rcx
    129d:	89 ef                	mov    %ebp,%edi
    129f:	48 89 c2             	mov    %rax,%rdx
    12a2:	e8 99 fe ff ff       	call   1140 <GLIBC_2.2.5@@GLIBC_2.2.5+0x1140>
    12a7:	66 0f 1f 84 00 00 00 	nopw   0x0(%rax,%rax,1)
    12ae:	00 00 
    12b0:	f3 0f 1e fa          	endbr64
    12b4:	55                   	push   %rbp
    12b5:	89 fd                	mov    %edi,%ebp
    12b7:	53                   	push   %rbx
    12b8:	48 89 f3             	mov    %rsi,%rbx
    12bb:	48 83 ec 18          	sub    $0x18,%rsp
    12bf:	f7 05 f7 17 03 00 7f 	testl  $0xffffff7f,0x317f7(%rip)        # 32ac0 <_rtld_global_ro@@GLIBC_PRIVATE>
    12c6:	ff ff ff 
    12c9:	75 25                	jne    12f0 <_dl_signal_error@@GLIBC_PRIVATE+0xb0>
    12cb:	48 8b 05 1e 2e 03 00 	mov    0x32e1e(%rip),%rax        # 340f0 <_rtld_global@@GLIBC_PRIVATE+0x10f0>
    12d2:	48 85 c0             	test   %rax,%rax
    12d5:	74 54                	je     132b <_dl_signal_error@@GLIBC_PRIVATE+0xeb>
    12d7:	48 8b 53 08          	mov    0x8(%rbx),%rdx
    12db:	48 8b 33             	mov    (%rbx),%rsi
    12de:	48 83 c4 18          	add    $0x18,%rsp
    12e2:	89 ef                	mov    %ebp,%edi
    12e4:	5b                   	pop    %rbx
    12e5:	5d                   	pop    %rbp
    12e6:	ff e0                	jmp    *%rax
    12e8:	0f 1f 84 00 00 00 00 	nopl   0x0(%rax,%rax,1)
    12ef:	00 
    12f0:	48 8d 05 3f 76 02 00 	lea    0x2763f(%rip),%rax        # 28936 <__rtld_version_placeholder@GLIBC_2.34+0x20c6>
    12f7:	48 83 3d f1 2d 03 00 	cmpq   $0x0,0x32df1(%rip)        # 340f0 <_rtld_global@@GLIBC_PRIVATE+0x10f0>
    12fe:	00 
    12ff:	48 8b 4e 08          	mov    0x8(%rsi),%rcx
    1303:	4c 8d 05 36 76 02 00 	lea    0x27636(%rip),%r8        # 28940 <__rtld_version_placeholder@GLIBC_2.34+0x20d0>
    130a:	4c 0f 45 c0          	cmovne %rax,%r8
    130e:	48 8b 36             	mov    (%rsi),%rsi
    1311:	31 c0                	xor    %eax,%eax
    1313:	48 89 54 24 08       	mov    %rdx,0x8(%rsp)
    1318:	48 8d 3d 27 76 02 00 	lea    0x27627(%rip),%rdi        # 28946 <__rtld_version_placeholder@GLIBC_2.34+0x20d6>
    131f:	e8 ac be 00 00       	call   d1d0 <_dl_find_dso_for_object@@GLIBC_PRIVATE+0x1760>
    1324:	48 8b 54 24 08       	mov    0x8(%rsp),%rdx
    1329:	eb a0                	jmp    12cb <_dl_signal_error@@GLIBC_PRIVATE+0x8b>
    132b:	48 89 de             	mov    %rbx,%rsi
    132e:	89 ef                	mov    %ebp,%edi
    1330:	e8 ab fe ff ff       	call   11e0 <_dl_signal_exception@@GLIBC_PRIVATE>
    1335:	66 66 2e 0f 1f 84 00 	data16 cs nopw 0x0(%rax,%rax,1)
    133c:	00 00 00 00 
    1340:	f3 0f 1e fa          	endbr64
    1344:	55                   	push   %rbp
    1345:	89 fd                	mov    %edi,%ebp
    1347:	48 83 ec 20          	sub    $0x20,%rsp
    134b:	f7 05 6b 17 03 00 7f 	testl  $0xffffff7f,0x3176b(%rip)        # 32ac0 <_rtld_global_ro@@GLIBC_PRIVATE>
    1352:	ff ff ff 
    1355:	75 19                	jne    1370 <_dl_signal_error@@GLIBC_PRIVATE+0x130>
    1357:	48 8b 05 92 2d 03 00 	mov    0x32d92(%rip),%rax        # 340f0 <_rtld_global@@GLIBC_PRIVATE+0x10f0>
    135e:	48 85 c0             	test   %rax,%rax
    1361:	74 55                	je     13b8 <_dl_signal_error@@GLIBC_PRIVATE+0x178>
    1363:	48 83 c4 20          	add    $0x20,%rsp
    1367:	89 ef                	mov    %ebp,%edi
    1369:	48 89 ca             	mov    %rcx,%rdx
    136c:	5d                   	pop    %rbp
    136d:	ff e0                	jmp    *%rax
    136f:	90                   	nop
    1370:	48 83 3d 78 2d 03 00 	cmpq   $0x0,0x32d78(%rip)        # 340f0 <_rtld_global@@GLIBC_PRIVATE+0x10f0>
    1377:	00 
    1378:	48 8d 05 b7 75 02 00 	lea    0x275b7(%rip),%rax        # 28936 <__rtld_version_placeholder@GLIBC_2.34+0x20c6>
    137f:	4c 8d 05 ba 75 02 00 	lea    0x275ba(%rip),%r8        # 28940 <__rtld_version_placeholder@GLIBC_2.34+0x20d0>
    1386:	48 89 4c 24 18       	mov    %rcx,0x18(%rsp)
    138b:	4c 0f 45 c0          	cmovne %rax,%r8
    138f:	48 8d 3d b0 75 02 00 	lea    0x275b0(%rip),%rdi        # 28946 <__rtld_version_placeholder@GLIBC_2.34+0x20d6>
    1396:	31 c0                	xor    %eax,%eax
    1398:	48 89 54 24 10       	mov    %rdx,0x10(%rsp)
    139d:	48 89 74 24 08       	mov    %rsi,0x8(%rsp)
    13a2:	e8 29 be 00 00       	call   d1d0 <_dl_find_dso_for_object@@GLIBC_PRIVATE+0x1760>
    13a7:	48 8b 4c 24 18       	mov    0x18(%rsp),%rcx
    13ac:	48 8b 54 24 10       	mov    0x10(%rsp),%rdx
    13b1:	48 8b 74 24 08       	mov    0x8(%rsp),%rsi
    13b6:	eb 9f                	jmp    1357 <_dl_signal_error@@GLIBC_PRIVATE+0x117>
    13b8:	89 ef                	mov    %ebp,%edi
    13ba:	e8 81 fe ff ff       	call   1240 <_dl_signal_error@@GLIBC_PRIVATE>
    13bf:	90                   	nop
    13c0:	f3 0f 1e fa          	endbr64
    13c4:	55                   	push   %rbp
    13c5:	48 89 f8             	mov    %rdi,%rax
    13c8:	48 89 d7             	mov    %rdx,%rdi
    13cb:	53                   	push   %rbx
    13cc:	48 83 ec 08          	sub    $0x8,%rsp
    13d0:	80 3d 49 2e 03 00 00 	cmpb   $0x0,0x32e49(%rip)        # 34220 <__nptl_initial_report_events@@GLIBC_PRIVATE+0x50>
    13d7:	48 8b 2d 12 2d 03 00 	mov    0x32d12(%rip),%rbp        # 340f0 <_rtld_global@@GLIBC_PRIVATE+0x10f0>
    13de:	75 40                	jne    1420 <_dl_signal_error@@GLIBC_PRIVATE+0x1e0>
    13e0:	48 8b 1d 11 2d 03 00 	mov    0x32d11(%rip),%rbx        # 340f8 <_rtld_global@@GLIBC_PRIVATE+0x10f8>
    13e7:	48 c7 05 06 2d 03 00 	movq   $0x0,0x32d06(%rip)        # 340f8 <_rtld_global@@GLIBC_PRIVATE+0x10f8>
    13ee:	00 00 00 00 
    13f2:	48 89 05 f7 2c 03 00 	mov    %rax,0x32cf7(%rip)        # 340f0 <_rtld_global@@GLIBC_PRIVATE+0x10f0>
    13f9:	ff d6                	call   *%rsi
    13fb:	80 3d 1e 2e 03 00 00 	cmpb   $0x0,0x32e1e(%rip)        # 34220 <__nptl_initial_report_events@@GLIBC_PRIVATE+0x50>
    1402:	75 3c                	jne    1440 <_dl_signal_error@@GLIBC_PRIVATE+0x200>
    1404:	48 89 1d ed 2c 03 00 	mov    %rbx,0x32ced(%rip)        # 340f8 <_rtld_global@@GLIBC_PRIVATE+0x10f8>
    140b:	48 89 2d de 2c 03 00 	mov    %rbp,0x32cde(%rip)        # 340f0 <_rtld_global@@GLIBC_PRIVATE+0x10f0>
    1412:	48 83 c4 08          	add    $0x8,%rsp
    1416:	5b                   	pop    %rbx
    1417:	5d                   	pop    %rbp
    1418:	c3                   	ret
    1419:	0f 1f 80 00 00 00 00 	nopl   0x0(%rax)
    1420:	64 48 8b 1c 25 f8 08 	mov    %fs:0x8f8,%rbx
    1427:	00 00 
    1429:	64 48 c7 04 25 f8 08 	movq   $0x0,%fs:0x8f8
    1430:	00 00 00 00 00 00 
    1436:	eb ba                	jmp    13f2 <_dl_signal_error@@GLIBC_PRIVATE+0x1b2>
    1438:	0f 1f 84 00 00 00 00 	nopl   0x0(%rax,%rax,1)
    143f:	00 
    1440:	64 48 89 1c 25 f8 08 	mov    %rbx,%fs:0x8f8
    1447:	00 00 
    1449:	48 89 2d a0 2c 03 00 	mov    %rbp,0x32ca0(%rip)        # 340f0 <_rtld_global@@GLIBC_PRIVATE+0x10f0>
    1450:	48 83 c4 08          	add    $0x8,%rsp
    1454:	5b                   	pop    %rbx
    1455:	5d                   	pop    %rbp
    1456:	c3                   	ret
    1457:	66 0f 1f 84 00 00 00 	nopw   0x0(%rax,%rax,1)
    145e:	00 00 

0000000000001460 <_dl_catch_exception@@GLIBC_PRIVATE>:
    1460:	f3 0f 1e fa          	endbr64
    1464:	53                   	push   %rbx
    1465:	48 81 ec 10 01 00 00 	sub    $0x110,%rsp
    146c:	0f b6 05 ad 2d 03 00 	movzbl 0x32dad(%rip),%eax        # 34220 <__nptl_initial_report_events@@GLIBC_PRIVATE+0x50>
    1473:	48 89 3c 24          	mov    %rdi,(%rsp)
    1477:	48 89 74 24 08       	mov    %rsi,0x8(%rsp)
    147c:	48 89 54 24 10       	mov    %rdx,0x10(%rsp)
    1481:	48 85 ff             	test   %rdi,%rdi
    1484:	0f 84 be 00 00 00    	je     1548 <_dl_catch_exception@@GLIBC_PRIVATE+0xe8>
    148a:	48 8b 0c 24          	mov    (%rsp),%rcx
    148e:	48 8d 54 24 2c       	lea    0x2c(%rsp),%rdx
    1493:	48 89 54 24 38       	mov    %rdx,0x38(%rsp)
    1498:	48 89 4c 24 30       	mov    %rcx,0x30(%rsp)
    149d:	84 c0                	test   %al,%al
    149f:	74 77                	je     1518 <_dl_catch_exception@@GLIBC_PRIVATE+0xb8>
    14a1:	64 48 8b 04 25 f8 08 	mov    %fs:0x8f8,%rax
    14a8:	00 00 
    14aa:	48 89 44 24 18       	mov    %rax,0x18(%rsp)
    14af:	48 8d 44 24 30       	lea    0x30(%rsp),%rax
    14b4:	64 48 89 04 25 f8 08 	mov    %rax,%fs:0x8f8
    14bb:	00 00 
    14bd:	48 8d 7c 24 40       	lea    0x40(%rsp),%rdi
    14c2:	31 f6                	xor    %esi,%esi
    14c4:	e8 57 02 02 00       	call   21720 <_dl_audit_symbind_alt@@GLIBC_PRIVATE+0x9bd0>
    14c9:	f3 0f 1e fa          	endbr64
    14cd:	85 c0                	test   %eax,%eax
    14cf:	0f 85 db 00 00 00    	jne    15b0 <_dl_catch_exception@@GLIBC_PRIVATE+0x150>
    14d5:	48 8b 44 24 08       	mov    0x8(%rsp),%rax
    14da:	48 8b 7c 24 10       	mov    0x10(%rsp),%rdi
    14df:	ff d0                	call   *%rax
    14e1:	80 3d 38 2d 03 00 00 	cmpb   $0x0,0x32d38(%rip)        # 34220 <__nptl_initial_report_events@@GLIBC_PRIVATE+0x50>
    14e8:	48 8b 44 24 18       	mov    0x18(%rsp),%rax
    14ed:	75 49                	jne    1538 <_dl_catch_exception@@GLIBC_PRIVATE+0xd8>
    14ef:	48 89 05 02 2c 03 00 	mov    %rax,0x32c02(%rip)        # 340f8 <_rtld_global@@GLIBC_PRIVATE+0x10f8>
    14f6:	48 8b 04 24          	mov    (%rsp),%rax
    14fa:	66 0f ef c0          	pxor   %xmm0,%xmm0
    14fe:	48 c7 40 10 00 00 00 	movq   $0x0,0x10(%rax)
    1505:	00 
    1506:	0f 11 00             	movups %xmm0,(%rax)
    1509:	31 c0                	xor    %eax,%eax
    150b:	48 81 c4 10 01 00 00 	add    $0x110,%rsp
    1512:	5b                   	pop    %rbx
    1513:	c3                   	ret
    1514:	0f 1f 40 00          	nopl   0x0(%rax)
    1518:	48 8b 05 d9 2b 03 00 	mov    0x32bd9(%rip),%rax        # 340f8 <_rtld_global@@GLIBC_PRIVATE+0x10f8>
    151f:	48 89 44 24 18       	mov    %rax,0x18(%rsp)
    1524:	48 8d 44 24 30       	lea    0x30(%rsp),%rax
    1529:	48 89 05 c8 2b 03 00 	mov    %rax,0x32bc8(%rip)        # 340f8 <_rtld_global@@GLIBC_PRIVATE+0x10f8>
    1530:	eb 8b                	jmp    14bd <_dl_catch_exception@@GLIBC_PRIVATE+0x5d>
    1532:	66 0f 1f 44 00 00    	nopw   0x0(%rax,%rax,1)
    1538:	64 48 89 04 25 f8 08 	mov    %rax,%fs:0x8f8
    153f:	00 00 
    1541:	eb b3                	jmp    14f6 <_dl_catch_exception@@GLIBC_PRIVATE+0x96>
    1543:	0f 1f 44 00 00       	nopl   0x0(%rax,%rax,1)
    1548:	84 c0                	test   %al,%al
    154a:	74 34                	je     1580 <_dl_catch_exception@@GLIBC_PRIVATE+0x120>
    154c:	64 48 8b 1c 25 f8 08 	mov    %fs:0x8f8,%rbx
    1553:	00 00 
    1555:	64 48 c7 04 25 f8 08 	movq   $0x0,%fs:0x8f8
    155c:	00 00 00 00 00 00 
    1562:	48 8b 7c 24 10       	mov    0x10(%rsp),%rdi
    1567:	48 8b 44 24 08       	mov    0x8(%rsp),%rax
    156c:	ff d0                	call   *%rax
    156e:	80 3d ab 2c 03 00 00 	cmpb   $0x0,0x32cab(%rip)        # 34220 <__nptl_initial_report_events@@GLIBC_PRIVATE+0x50>
    1575:	75 21                	jne    1598 <_dl_catch_exception@@GLIBC_PRIVATE+0x138>
    1577:	48 89 1d 7a 2b 03 00 	mov    %rbx,0x32b7a(%rip)        # 340f8 <_rtld_global@@GLIBC_PRIVATE+0x10f8>
    157e:	eb 89                	jmp    1509 <_dl_catch_exception@@GLIBC_PRIVATE+0xa9>
    1580:	48 8b 1d 71 2b 03 00 	mov    0x32b71(%rip),%rbx        # 340f8 <_rtld_global@@GLIBC_PRIVATE+0x10f8>
    1587:	48 c7 05 66 2b 03 00 	movq   $0x0,0x32b66(%rip)        # 340f8 <_rtld_global@@GLIBC_PRIVATE+0x10f8>
    158e:	00 00 00 00 
    1592:	eb ce                	jmp    1562 <_dl_catch_exception@@GLIBC_PRIVATE+0x102>
    1594:	0f 1f 40 00          	nopl   0x0(%rax)
    1598:	64 48 89 1c 25 f8 08 	mov    %rbx,%fs:0x8f8
    159f:	00 00 
    15a1:	e9 63 ff ff ff       	jmp    1509 <_dl_catch_exception@@GLIBC_PRIVATE+0xa9>
    15a6:	66 2e 0f 1f 84 00 00 	cs nopw 0x0(%rax,%rax,1)
    15ad:	00 00 00 
    15b0:	80 3d 69 2c 03 00 00 	cmpb   $0x0,0x32c69(%rip)        # 34220 <__nptl_initial_report_events@@GLIBC_PRIVATE+0x50>
    15b7:	48 8b 44 24 18       	mov    0x18(%rsp),%rax
    15bc:	74 12                	je     15d0 <_dl_catch_exception@@GLIBC_PRIVATE+0x170>
    15be:	64 48 89 04 25 f8 08 	mov    %rax,%fs:0x8f8
    15c5:	00 00 
    15c7:	8b 44 24 2c          	mov    0x2c(%rsp),%eax
    15cb:	e9 3b ff ff ff       	jmp    150b <_dl_catch_exception@@GLIBC_PRIVATE+0xab>
    15d0:	48 89 05 21 2b 03 00 	mov    %rax,0x32b21(%rip)        # 340f8 <_rtld_global@@GLIBC_PRIVATE+0x10f8>
    15d7:	eb ee                	jmp    15c7 <_dl_catch_exception@@GLIBC_PRIVATE+0x167>
    15d9:	0f 1f 80 00 00 00 00 	nopl   0x0(%rax)
    15e0:	f3 0f 1e fa          	endbr64
    15e4:	41 54                	push   %r12
    15e6:	49 89 fc             	mov    %rdi,%r12
    15e9:	55                   	push   %rbp
    15ea:	48 89 f5             	mov    %rsi,%rbp
    15ed:	48 89 ce             	mov    %rcx,%rsi
    15f0:	53                   	push   %rbx
    15f1:	48 89 d3             	mov    %rdx,%rbx
    15f4:	4c 89 c2             	mov    %r8,%rdx
    15f7:	48 83 ec 20          	sub    $0x20,%rsp
    15fb:	48 89 e7             	mov    %rsp,%rdi
    15fe:	e8 5d fe ff ff       	call   1460 <_dl_catch_exception@@GLIBC_PRIVATE>
    1603:	48 8b 14 24          	mov    (%rsp),%rdx
    1607:	49 89 14 24          	mov    %rdx,(%r12)
    160b:	48 8b 54 24 08       	mov    0x8(%rsp),%rdx
    1610:	48 39 54 24 10       	cmp    %rdx,0x10(%rsp)
    1615:	48 89 55 00          	mov    %rdx,0x0(%rbp)
    1619:	0f 94 03             	sete   (%rbx)
    161c:	48 83 c4 20          	add    $0x20,%rsp
    1620:	5b                   	pop    %rbx
    1621:	5d                   	pop    %rbp
    1622:	41 5c                	pop    %r12
    1624:	c3                   	ret
    1625:	66 2e 0f 1f 84 00 00 	cs nopw 0x0(%rax,%rax,1)
    162c:	00 00 00 
    162f:	90                   	nop
    1630:	55                   	push   %rbp
    1631:	48 89 d5             	mov    %rdx,%rbp
    1634:	48 89 f8             	mov    %rdi,%rax
    1637:	53                   	push   %rbx
    1638:	48 89 f3             	mov    %rsi,%rbx
    163b:	48 89 fe             	mov    %rdi,%rsi
    163e:	48 29 d6             	sub    %rdx,%rsi
    1641:	48 83 ec 08          	sub    $0x8,%rsp
    1645:	48 8b 13             	mov    (%rbx),%rdx
    1648:	48 39 d6             	cmp    %rdx,%rsi
    164b:	72 73                	jb     16c0 <_dl_catch_exception@@GLIBC_PRIVATE+0x260>
    164d:	48 8b 73 08          	mov    0x8(%rbx),%rsi
    1651:	48 85 f6             	test   %rsi,%rsi
    1654:	0f 84 ae 00 00 00    	je     1708 <_dl_catch_exception@@GLIBC_PRIVATE+0x2a8>
    165a:	48 01 ea             	add    %rbp,%rdx
    165d:	0f b6 c9             	movzbl %cl,%ecx
    1660:	e8 cb ff ff ff       	call   1630 <_dl_catch_exception@@GLIBC_PRIVATE+0x1d0>
    1665:	84 c0                	test   %al,%al
    1667:	0f 85 8b 00 00 00    	jne    16f8 <_dl_catch_exception@@GLIBC_PRIVATE+0x298>
    166d:	48 8b 03             	mov    (%rbx),%rax
    1670:	48 01 e8             	add    %rbp,%rax
    1673:	48 8b 3d f6 29 03 00 	mov    0x329f6(%rip),%rdi        # 34070 <_rtld_global@@GLIBC_PRIVATE+0x1070>
    167a:	31 d2                	xor    %edx,%edx
    167c:	48 85 ed             	test   %rbp,%rbp
    167f:	48 8d 77 01          	lea    0x1(%rdi),%rsi
    1683:	48 0f 45 f2          	cmovne %rdx,%rsi
    1687:	48 29 e8             	sub    %rbp,%rax
    168a:	eb 1e                	jmp    16aa <_dl_catch_exception@@GLIBC_PRIVATE+0x24a>
    168c:	0f 1f 40 00          	nopl   0x0(%rax)
    1690:	48 8d 50 ff          	lea    -0x1(%rax),%rdx
    1694:	48 89 d1             	mov    %rdx,%rcx
    1697:	48 c1 e1 04          	shl    $0x4,%rcx
    169b:	48 83 7c 0b 18 00    	cmpq   $0x0,0x18(%rbx,%rcx,1)
    16a1:	0f 85 89 00 00 00    	jne    1730 <_dl_catch_exception@@GLIBC_PRIVATE+0x2d0>
    16a7:	48 89 d0             	mov    %rdx,%rax
    16aa:	48 39 c6             	cmp    %rax,%rsi
    16ad:	72 e1                	jb     1690 <_dl_catch_exception@@GLIBC_PRIVATE+0x230>
    16af:	48 83 c4 08          	add    $0x8,%rsp
    16b3:	31 c0                	xor    %eax,%eax
    16b5:	5b                   	pop    %rbx
    16b6:	5d                   	pop    %rbp
    16b7:	c3                   	ret
    16b8:	0f 1f 84 00 00 00 00 	nopl   0x0(%rax,%rax,1)
    16bf:	00 
    16c0:	48 83 c6 01          	add    $0x1,%rsi
    16c4:	48 c1 e6 04          	shl    $0x4,%rsi
    16c8:	48 83 7c 33 08 00    	cmpq   $0x0,0x8(%rbx,%rsi,1)
    16ce:	74 18                	je     16e8 <_dl_catch_exception@@GLIBC_PRIVATE+0x288>
    16d0:	48 8b 3d b9 29 03 00 	mov    0x329b9(%rip),%rdi        # 34090 <_rtld_global@@GLIBC_PRIVATE+0x1090>
    16d7:	48 8d 57 01          	lea    0x1(%rdi),%rdx
    16db:	48 89 14 33          	mov    %rdx,(%rbx,%rsi,1)
    16df:	48 c7 44 33 08 00 00 	movq   $0x0,0x8(%rbx,%rsi,1)
    16e6:	00 00 
    16e8:	48 39 05 71 29 03 00 	cmp    %rax,0x32971(%rip)        # 34060 <_rtld_global@@GLIBC_PRIVATE+0x1060>
    16ef:	74 82                	je     1673 <_dl_catch_exception@@GLIBC_PRIVATE+0x213>
    16f1:	c6 05 64 29 03 00 01 	movb   $0x1,0x32964(%rip)        # 3405c <_rtld_global@@GLIBC_PRIVATE+0x105c>
    16f8:	48 83 c4 08          	add    $0x8,%rsp
    16fc:	b8 01 00 00 00       	mov    $0x1,%eax
    1701:	5b                   	pop    %rbx
    1702:	5d                   	pop    %rbp
    1703:	c3                   	ret
    1704:	0f 1f 40 00          	nopl   0x0(%rax)
    1708:	84 c9                	test   %cl,%cl
    170a:	0f 84 63 ff ff ff    	je     1673 <_dl_catch_exception@@GLIBC_PRIVATE+0x213>
    1710:	48 8d 0d c9 86 02 00 	lea    0x286c9(%rip),%rcx        # 29de0 <__rtld_version_placeholder@GLIBC_2.34+0x3570>
    1717:	ba 37 00 00 00       	mov    $0x37,%edx
    171c:	48 8d 35 3b 72 02 00 	lea    0x2723b(%rip),%rsi        # 2895e <__rtld_version_placeholder@GLIBC_2.34+0x20ee>
    1723:	48 8d 3d 3f 72 02 00 	lea    0x2723f(%rip),%rdi        # 28969 <__rtld_version_placeholder@GLIBC_2.34+0x20f9>
    172a:	e8 81 82 01 00       	call   199b0 <_dl_audit_symbind_alt@@GLIBC_PRIVATE+0x1e60>
    172f:	90                   	nop
    1730:	48 8d 44 28 ff       	lea    -0x1(%rax,%rbp,1),%rax
    1735:	48 89 05 24 29 03 00 	mov    %rax,0x32924(%rip)        # 34060 <_rtld_global@@GLIBC_PRIVATE+0x1060>
    173c:	eb ba                	jmp    16f8 <_dl_catch_exception@@GLIBC_PRIVATE+0x298>
    173e:	66 90                	xchg   %ax,%ax
    1740:	f3 0f 1e fa          	endbr64
    1744:	48 b9 ff ff ff ff 03 	movabs $0x3ffffffff,%rcx
    174b:	00 00 00 
    174e:	89 f0                	mov    %esi,%eax
    1750:	8b b7 30 03 00 00    	mov    0x330(%rdi),%esi
    1756:	8d 56 ff             	lea    -0x1(%rsi),%edx
    1759:	48 be 00 00 00 00 02 	movabs $0x200000000,%rsi
    1760:	00 00 00 
    1763:	89 97 30 03 00 00    	mov    %edx,0x330(%rdi)
    1769:	48 23 8f 30 03 00 00 	and    0x330(%rdi),%rcx
    1770:	48 39 f1             	cmp    %rsi,%rcx
    1773:	0f 85 f1 06 00 00    	jne    1e6a <_dl_catch_exception@@GLIBC_PRIVATE+0xa0a>
    1779:	8b 0d 81 29 03 00    	mov    0x32981(%rip),%ecx        # 34100 <_rtld_global@@GLIBC_PRIVATE+0x1100>
    177f:	85 c9                	test   %ecx,%ecx
    1781:	0f 85 d9 06 00 00    	jne    1e60 <_dl_catch_exception@@GLIBC_PRIVATE+0xa00>
    1787:	41 57                	push   %r15
    1789:	41 56                	push   %r14
    178b:	41 55                	push   %r13
    178d:	41 54                	push   %r12
    178f:	41 89 c4             	mov    %eax,%r12d
    1792:	55                   	push   %rbp
    1793:	53                   	push   %rbx
    1794:	48 83 ec 48          	sub    $0x48,%rsp
    1798:	4c 8b 7f 30          	mov    0x30(%rdi),%r15
    179c:	4e 8d 0c bd 00 00 00 	lea    0x0(,%r15,4),%r9
    17a3:	00 
    17a4:	4b 8d 0c 39          	lea    (%r9,%r15,1),%rcx
    17a8:	4c 89 4c 24 20       	mov    %r9,0x20(%rsp)
    17ad:	48 c1 e1 05          	shl    $0x5,%rcx
    17b1:	49 89 cd             	mov    %rcx,%r13
    17b4:	48 8d 05 45 18 03 00 	lea    0x31845(%rip),%rax        # 33000 <_rtld_global@@GLIBC_PRIVATE>
    17bb:	c7 05 3b 29 03 00 01 	movl   $0x1,0x3293b(%rip)        # 34100 <_rtld_global@@GLIBC_PRIVATE+0x1100>
    17c2:	00 00 00 
    17c5:	4c 01 e8             	add    %r13,%rax
    17c8:	48 8b 30             	mov    (%rax),%rsi
    17cb:	8b 78 08             	mov    0x8(%rax),%edi
    17ce:	48 85 f6             	test   %rsi,%rsi
    17d1:	0f 84 b9 0a 00 00    	je     2290 <_dl_catch_exception@@GLIBC_PRIVATE+0xe30>
    17d7:	48 89 f0             	mov    %rsi,%rax
    17da:	31 d2                	xor    %edx,%edx
    17dc:	0f 1f 40 00          	nopl   0x0(%rax)
    17e0:	89 90 0c 04 00 00    	mov    %edx,0x40c(%rax)
    17e6:	83 c2 01             	add    $0x1,%edx
    17e9:	80 a0 35 03 00 00 f3 	andb   $0xf3,0x335(%rax)
    17f0:	48 8b 40 18          	mov    0x18(%rax),%rax
    17f4:	48 85 c0             	test   %rax,%rax
    17f7:	75 e7                	jne    17e0 <_dl_catch_exception@@GLIBC_PRIVATE+0x380>
    17f9:	39 fa                	cmp    %edi,%edx
    17fb:	0f 85 1c 0c 00 00    	jne    241d <_dl_catch_exception@@GLIBC_PRIVATE+0xfbd>
    1801:	49 ba ff ff ff ff 03 	movabs $0x3ffffffff,%r10
    1808:	00 00 00 
    180b:	49 b9 00 00 00 00 02 	movabs $0x200000000,%r9
    1812:	00 00 00 
    1815:	eb 59                	jmp    1870 <_dl_catch_exception@@GLIBC_PRIVATE+0x410>
    1817:	66 0f 1f 84 00 00 00 	nopw   0x0(%rax,%rax,1)
    181e:	00 00 
    1820:	48 8b 86 30 03 00 00 	mov    0x330(%rsi),%rax
    1827:	4c 21 d0             	and    %r10,%rax
    182a:	4c 39 c8             	cmp    %r9,%rax
    182d:	0f 84 5d 07 00 00    	je     1f90 <_dl_catch_exception@@GLIBC_PRIVATE+0xb30>
    1833:	48 8b 86 e8 03 00 00 	mov    0x3e8(%rsi),%rax
    183a:	80 8e 35 03 00 00 0c 	orb    $0xc,0x335(%rsi)
    1841:	41 83 c0 01          	add    $0x1,%r8d
    1845:	c7 86 0c 04 00 00 ff 	movl   $0xffffffff,0x40c(%rsi)
    184c:	ff ff ff 
    184f:	48 85 c0             	test   %rax,%rax
    1852:	0f 85 28 06 00 00    	jne    1e80 <_dl_catch_exception@@GLIBC_PRIVATE+0xa20>
    1858:	48 8b 86 f0 03 00 00 	mov    0x3f0(%rsi),%rax
    185f:	4c 89 de             	mov    %r11,%rsi
    1862:	48 85 c0             	test   %rax,%rax
    1865:	0f 85 a5 06 00 00    	jne    1f10 <_dl_catch_exception@@GLIBC_PRIVATE+0xab0>
    186b:	48 85 f6             	test   %rsi,%rsi
    186e:	74 1c                	je     188c <_dl_catch_exception@@GLIBC_PRIVATE+0x42c>
    1870:	4c 8b 5e 18          	mov    0x18(%rsi),%r11
    1874:	44 8b 86 0c 04 00 00 	mov    0x40c(%rsi),%r8d
    187b:	f6 86 35 03 00 00 08 	testb  $0x8,0x335(%rsi)
    1882:	74 9c                	je     1820 <_dl_catch_exception@@GLIBC_PRIVATE+0x3c0>
    1884:	4c 89 de             	mov    %r11,%rsi
    1887:	48 85 f6             	test   %rsi,%rsi
    188a:	75 e4                	jne    1870 <_dl_catch_exception@@GLIBC_PRIVATE+0x410>
    188c:	48 8b 1d cd 28 03 00 	mov    0x328cd(%rip),%rbx        # 34160 <_r_debug@@GLIBC_2.2.5+0x58>
    1893:	48 85 db             	test   %rbx,%rbx
    1896:	0f 84 92 00 00 00    	je     192e <_dl_catch_exception@@GLIBC_PRIVATE+0x4ce>
    189c:	4c 8d 35 bd 28 03 00 	lea    0x328bd(%rip),%r14        # 34160 <_r_debug@@GLIBC_2.2.5+0x58>
    18a3:	48 8d 2d e6 f7 ff ff 	lea    -0x81a(%rip),%rbp        # 1090 <GLIBC_2.2.5@@GLIBC_2.2.5+0x1090>
    18aa:	eb 17                	jmp    18c3 <_dl_catch_exception@@GLIBC_PRIVATE+0x463>
    18ac:	0f 1f 40 00          	nopl   0x0(%rax)
    18b0:	4c 8d b3 80 03 00 00 	lea    0x380(%rbx),%r14
    18b7:	48 8b 9b 80 03 00 00 	mov    0x380(%rbx),%rbx
    18be:	48 85 db             	test   %rbx,%rbx
    18c1:	74 6b                	je     192e <_dl_catch_exception@@GLIBC_PRIVATE+0x4ce>
    18c3:	4c 39 7b 30          	cmp    %r15,0x30(%rbx)
    18c7:	75 e7                	jne    18b0 <_dl_catch_exception@@GLIBC_PRIVATE+0x450>
    18c9:	f6 83 35 03 00 00 04 	testb  $0x4,0x335(%rbx)
    18d0:	75 de                	jne    18b0 <_dl_catch_exception@@GLIBC_PRIVATE+0x450>
    18d2:	0f b6 83 34 03 00 00 	movzbl 0x334(%rbx),%eax
    18d9:	89 c2                	mov    %eax,%edx
    18db:	83 e2 03             	and    $0x3,%edx
    18de:	80 fa 02             	cmp    $0x2,%dl
    18e1:	0f 85 55 0b 00 00    	jne    243c <_dl_catch_exception@@GLIBC_PRIVATE+0xfdc>
    18e7:	80 bb 37 03 00 00 00 	cmpb   $0x0,0x337(%rbx)
    18ee:	0f 85 48 0b 00 00    	jne    243c <_dl_catch_exception@@GLIBC_PRIVATE+0xfdc>
    18f4:	a8 10                	test   $0x10,%al
    18f6:	0f 84 5f 0b 00 00    	je     245b <_dl_catch_exception@@GLIBC_PRIVATE+0xffb>
    18fc:	48 83 bb 10 01 00 00 	cmpq   $0x0,0x110(%rbx)
    1903:	00 
    1904:	0f 84 b8 06 00 00    	je     1fc2 <_dl_catch_exception@@GLIBC_PRIVATE+0xb62>
    190a:	48 89 da             	mov    %rbx,%rdx
    190d:	48 89 ee             	mov    %rbp,%rsi
    1910:	31 ff                	xor    %edi,%edi
    1912:	e8 49 fb ff ff       	call   1460 <_dl_catch_exception@@GLIBC_PRIVATE>
    1917:	48 89 df             	mov    %rbx,%rdi
    191a:	e8 11 61 01 00       	call   17a30 <_dl_x86_get_cpu_features@@GLIBC_PRIVATE+0x700>
    191f:	48 8b 9b 80 03 00 00 	mov    0x380(%rbx),%rbx
    1926:	49 89 1e             	mov    %rbx,(%r14)
    1929:	48 85 db             	test   %rbx,%rbx
    192c:	75 95                	jne    18c3 <_dl_catch_exception@@GLIBC_PRIVATE+0x463>
    192e:	48 8d 05 cb 16 03 00 	lea    0x316cb(%rip),%rax        # 33000 <_rtld_global@@GLIBC_PRIVATE>
    1935:	4a 8b 2c 28          	mov    (%rax,%r13,1),%rbp
    1939:	48 85 ed             	test   %rbp,%rbp
    193c:	0f 84 f2 04 00 00    	je     1e34 <_dl_catch_exception@@GLIBC_PRIVATE+0x9d4>
    1942:	45 31 c0             	xor    %r8d,%r8d
    1945:	45 31 c9             	xor    %r9d,%r9d
    1948:	44 88 64 24 18       	mov    %r12b,0x18(%rsp)
    194d:	48 89 eb             	mov    %rbp,%rbx
    1950:	4c 89 6c 24 28       	mov    %r13,0x28(%rsp)
    1955:	45 89 c4             	mov    %r8d,%r12d
    1958:	45 89 cd             	mov    %r9d,%r13d
    195b:	c6 04 24 00          	movb   $0x0,(%rsp)
    195f:	48 89 6c 24 10       	mov    %rbp,0x10(%rsp)
    1964:	eb 2d                	jmp    1993 <_dl_catch_exception@@GLIBC_PRIVATE+0x533>
    1966:	66 2e 0f 1f 84 00 00 	cs nopw 0x0(%rax,%rax,1)
    196d:	00 00 00 
    1970:	83 e0 20             	and    $0x20,%eax
    1973:	80 8b 36 03 00 00 04 	orb    $0x4,0x336(%rbx)
    197a:	41 bd 01 00 00 00    	mov    $0x1,%r13d
    1980:	3c 01                	cmp    $0x1,%al
    1982:	41 83 dc ff          	sbb    $0xffffffff,%r12d
    1986:	48 8b 5b 18          	mov    0x18(%rbx),%rbx
    198a:	48 85 db             	test   %rbx,%rbx
    198d:	0f 84 95 01 00 00    	je     1b28 <_dl_catch_exception@@GLIBC_PRIVATE+0x6c8>
    1993:	0f b6 83 34 03 00 00 	movzbl 0x334(%rbx),%eax
    199a:	f6 83 35 03 00 00 04 	testb  $0x4,0x335(%rbx)
    19a1:	74 cd                	je     1970 <_dl_catch_exception@@GLIBC_PRIVATE+0x510>
    19a3:	83 e0 03             	and    $0x3,%eax
    19a6:	3c 02                	cmp    $0x2,%al
    19a8:	75 dc                	jne    1986 <_dl_catch_exception@@GLIBC_PRIVATE+0x526>
    19aa:	48 83 bb d8 02 00 00 	cmpq   $0x0,0x2d8(%rbx)
    19b1:	00 
    19b2:	0f 84 40 06 00 00    	je     1ff8 <_dl_catch_exception@@GLIBC_PRIVATE+0xb98>
    19b8:	4c 8b 9b b0 03 00 00 	mov    0x3b0(%rbx),%r11
    19bf:	45 31 c0             	xor    %r8d,%r8d
    19c2:	bf 01 00 00 00       	mov    $0x1,%edi
    19c7:	49 8b 03             	mov    (%r11),%rax
    19ca:	48 85 c0             	test   %rax,%rax
    19cd:	0f 84 20 01 00 00    	je     1af3 <_dl_catch_exception@@GLIBC_PRIVATE+0x693>
    19d3:	49 8d 53 08          	lea    0x8(%r11),%rdx
    19d7:	48 89 c1             	mov    %rax,%rcx
    19da:	45 31 f6             	xor    %r14d,%r14d
    19dd:	48 89 d6             	mov    %rdx,%rsi
    19e0:	48 8d ab e8 02 00 00 	lea    0x2e8(%rbx),%rbp
    19e7:	eb 2f                	jmp    1a18 <_dl_catch_exception@@GLIBC_PRIVATE+0x5b8>
    19e9:	0f 1f 80 00 00 00 00 	nopl   0x0(%rax)
    19f0:	4c 39 b9 58 fd ff ff 	cmp    %r15,-0x2a8(%rcx)
    19f7:	0f 85 7d 0a 00 00    	jne    247a <_dl_catch_exception@@GLIBC_PRIVATE+0x101a>
    19fd:	83 b9 34 01 00 00 ff 	cmpl   $0xffffffff,0x134(%rcx)
    1a04:	74 17                	je     1a1d <_dl_catch_exception@@GLIBC_PRIVATE+0x5bd>
    1a06:	48 8b 0e             	mov    (%rsi),%rcx
    1a09:	48 83 c6 08          	add    $0x8,%rsi
    1a0d:	41 be 01 00 00 00    	mov    $0x1,%r14d
    1a13:	48 85 c9             	test   %rcx,%rcx
    1a16:	74 15                	je     1a2d <_dl_catch_exception@@GLIBC_PRIVATE+0x5cd>
    1a18:	48 39 cd             	cmp    %rcx,%rbp
    1a1b:	75 d3                	jne    19f0 <_dl_catch_exception@@GLIBC_PRIVATE+0x590>
    1a1d:	48 8b 0e             	mov    (%rsi),%rcx
    1a20:	48 83 c6 08          	add    $0x8,%rsi
    1a24:	48 83 c7 01          	add    $0x1,%rdi
    1a28:	48 85 c9             	test   %rcx,%rcx
    1a2b:	75 eb                	jne    1a18 <_dl_catch_exception@@GLIBC_PRIVATE+0x5b8>
    1a2d:	45 84 f6             	test   %r14b,%r14b
    1a30:	0f 84 9f 05 00 00    	je     1fd5 <_dl_catch_exception@@GLIBC_PRIVATE+0xb75>
    1a36:	4c 8d 8b 88 03 00 00 	lea    0x388(%rbx),%r9
    1a3d:	48 83 ff 03          	cmp    $0x3,%rdi
    1a41:	0f 87 17 06 00 00    	ja     205e <_dl_catch_exception@@GLIBC_PRIVATE+0xbfe>
    1a47:	48 c7 44 24 08 04 00 	movq   $0x4,0x8(%rsp)
    1a4e:	00 00 
    1a50:	4d 89 ca             	mov    %r9,%r10
    1a53:	4d 39 d9             	cmp    %r11,%r9
    1a56:	0f 84 02 06 00 00    	je     205e <_dl_catch_exception@@GLIBC_PRIVATE+0xbfe>
    1a5c:	31 c9                	xor    %ecx,%ecx
    1a5e:	31 f6                	xor    %esi,%esi
    1a60:	eb 23                	jmp    1a85 <_dl_catch_exception@@GLIBC_PRIVATE+0x625>
    1a62:	4d 85 c0             	test   %r8,%r8
    1a65:	74 12                	je     1a79 <_dl_catch_exception@@GLIBC_PRIVATE+0x619>
    1a67:	48 83 c1 01          	add    $0x1,%rcx
    1a6b:	4c 89 07             	mov    %r8,(%rdi)
    1a6e:	45 31 c0             	xor    %r8d,%r8d
    1a71:	48 8d 34 cd 00 00 00 	lea    0x0(,%rcx,8),%rsi
    1a78:	00 
    1a79:	48 8b 02             	mov    (%rdx),%rax
    1a7c:	48 83 c2 08          	add    $0x8,%rdx
    1a80:	48 85 c0             	test   %rax,%rax
    1a83:	74 2e                	je     1ab3 <_dl_catch_exception@@GLIBC_PRIVATE+0x653>
    1a85:	49 8d 3c 32          	lea    (%r10,%rsi,1),%rdi
    1a89:	48 39 c5             	cmp    %rax,%rbp
    1a8c:	74 09                	je     1a97 <_dl_catch_exception@@GLIBC_PRIVATE+0x637>
    1a8e:	83 b8 34 01 00 00 ff 	cmpl   $0xffffffff,0x134(%rax)
    1a95:	75 cb                	jne    1a62 <_dl_catch_exception@@GLIBC_PRIVATE+0x602>
    1a97:	48 83 c2 08          	add    $0x8,%rdx
    1a9b:	48 89 07             	mov    %rax,(%rdi)
    1a9e:	48 83 c1 01          	add    $0x1,%rcx
    1aa2:	48 8b 42 f8          	mov    -0x8(%rdx),%rax
    1aa6:	48 8d 34 cd 00 00 00 	lea    0x0(,%rcx,8),%rsi
    1aad:	00 
    1aae:	48 85 c0             	test   %rax,%rax
    1ab1:	75 d2                	jne    1a85 <_dl_catch_exception@@GLIBC_PRIVATE+0x625>
    1ab3:	4c 01 d6             	add    %r10,%rsi
    1ab6:	48 c7 06 00 00 00 00 	movq   $0x0,(%rsi)
    1abd:	4c 89 93 b0 03 00 00 	mov    %r10,0x3b0(%rbx)
    1ac4:	4d 39 d9             	cmp    %r11,%r9
    1ac7:	0f 84 ea 05 00 00    	je     20b7 <_dl_catch_exception@@GLIBC_PRIVATE+0xc57>
    1acd:	4c 89 df             	mov    %r11,%rdi
    1ad0:	e8 3b f1 00 00       	call   10c10 <_dl_mcount@@GLIBC_2.2.5+0x2e70>
    1ad5:	0f b6 34 24          	movzbl (%rsp),%esi
    1ad9:	85 c0                	test   %eax,%eax
    1adb:	b8 00 00 00 00       	mov    $0x0,%eax
    1ae0:	0f 45 f0             	cmovne %eax,%esi
    1ae3:	40 88 34 24          	mov    %sil,(%rsp)
    1ae7:	48 8b 44 24 08       	mov    0x8(%rsp),%rax
    1aec:	48 89 83 a8 03 00 00 	mov    %rax,0x3a8(%rbx)
    1af3:	48 8b 83 f8 02 00 00 	mov    0x2f8(%rbx),%rax
    1afa:	48 85 c0             	test   %rax,%rax
    1afd:	0f 84 83 fe ff ff    	je     1986 <_dl_catch_exception@@GLIBC_PRIVATE+0x526>
    1b03:	83 b8 0c 04 00 00 ff 	cmpl   $0xffffffff,0x40c(%rax)
    1b0a:	0f 84 76 fe ff ff    	je     1986 <_dl_catch_exception@@GLIBC_PRIVATE+0x526>
    1b10:	48 c7 83 f8 02 00 00 	movq   $0x0,0x2f8(%rbx)
    1b17:	00 00 00 00 
    1b1b:	48 8b 5b 18          	mov    0x18(%rbx),%rbx
    1b1f:	48 85 db             	test   %rbx,%rbx
    1b22:	0f 85 6b fe ff ff    	jne    1993 <_dl_catch_exception@@GLIBC_PRIVATE+0x533>
    1b28:	45 89 e9             	mov    %r13d,%r9d
    1b2b:	45 89 e0             	mov    %r12d,%r8d
    1b2e:	48 8b 6c 24 10       	mov    0x10(%rsp),%rbp
    1b33:	4c 8b 6c 24 28       	mov    0x28(%rsp),%r13
    1b38:	44 0f b6 64 24 18    	movzbl 0x18(%rsp),%r12d
    1b3e:	45 84 c9             	test   %r9b,%r9b
    1b41:	0f 84 ed 02 00 00    	je     1e34 <_dl_catch_exception@@GLIBC_PRIVATE+0x9d4>
    1b47:	be 02 00 00 00       	mov    $0x2,%esi
    1b4c:	4c 89 ff             	mov    %r15,%rdi
    1b4f:	44 89 44 24 10       	mov    %r8d,0x10(%rsp)
    1b54:	44 88 4c 24 08       	mov    %r9b,0x8(%rsp)
    1b59:	e8 22 5d 01 00       	call   17880 <_dl_x86_get_cpu_features@@GLIBC_PRIVATE+0x550>
    1b5e:	4c 89 ff             	mov    %r15,%rdi
    1b61:	e8 ba 09 00 00       	call   2520 <_dl_debug_state@@GLIBC_PRIVATE+0x10>
    1b66:	c7 40 18 02 00 00 00 	movl   $0x2,0x18(%rax)
    1b6d:	48 89 c3             	mov    %rax,%rbx
    1b70:	48 89 44 24 18       	mov    %rax,0x18(%rsp)
    1b75:	e8 96 09 00 00       	call   2510 <_dl_debug_state@@GLIBC_PRIVATE>
    1b7a:	90                   	nop
    1b7b:	44 8b 44 24 10       	mov    0x10(%rsp),%r8d
    1b80:	44 0f b6 4c 24 08    	movzbl 0x8(%rsp),%r9d
    1b86:	45 85 c0             	test   %r8d,%r8d
    1b89:	0f 85 31 05 00 00    	jne    20c0 <_dl_catch_exception@@GLIBC_PRIVATE+0xc60>
    1b8f:	64 8b 04 25 18 00 00 	mov    %fs:0x18,%eax
    1b96:	00 
    1b97:	85 c0                	test   %eax,%eax
    1b99:	74 20                	je     1bbb <_dl_catch_exception@@GLIBC_PRIVATE+0x75b>
    1b9b:	80 3c 24 00          	cmpb   $0x0,(%rsp)
    1b9f:	0f 85 6f 05 00 00    	jne    2114 <_dl_catch_exception@@GLIBC_PRIVATE+0xcb4>
    1ba5:	48 8b 05 ec 24 03 00 	mov    0x324ec(%rip),%rax        # 34098 <_rtld_global@@GLIBC_PRIVATE+0x1098>
    1bac:	48 85 c0             	test   %rax,%rax
    1baf:	74 0a                	je     1bbb <_dl_catch_exception@@GLIBC_PRIVATE+0x75b>
    1bb1:	48 83 38 00          	cmpq   $0x0,(%rax)
    1bb5:	0f 85 59 05 00 00    	jne    2114 <_dl_catch_exception@@GLIBC_PRIVATE+0xcb4>
    1bbb:	44 88 4c 24 30       	mov    %r9b,0x30(%rsp)
    1bc0:	48 8d 3d 91 1e 03 00 	lea    0x31e91(%rip),%rdi        # 33a58 <_rtld_global@@GLIBC_PRIVATE+0xa58>
    1bc7:	45 31 f6             	xor    %r14d,%r14d
    1bca:	ff 15 80 0e 03 00    	call   *0x30e80(%rip)        # 32a50 <__rseq_size@@GLIBC_2.35+0x1280>
    1bd0:	48 8d 3d 59 1e 03 00 	lea    0x31e59(%rip),%rdi        # 33a30 <_rtld_global@@GLIBC_PRIVATE+0xa30>
    1bd7:	ff 15 73 0e 03 00    	call   *0x30e73(%rip)        # 32a50 <__rseq_size@@GLIBC_2.35+0x1280>
    1bdd:	48 8b 44 24 20       	mov    0x20(%rsp),%rax
    1be2:	4c 89 7c 24 28       	mov    %r15,0x28(%rsp)
    1be7:	48 c7 44 24 08 00 00 	movq   $0x0,0x8(%rsp)
    1bee:	00 00 
    1bf0:	4a 8d 1c 38          	lea    (%rax,%r15,1),%rbx
    1bf4:	48 8d 05 05 14 03 00 	lea    0x31405(%rip),%rax        # 33000 <_rtld_global@@GLIBC_PRIVATE>
    1bfb:	49 89 ef             	mov    %rbp,%r15
    1bfe:	c6 44 24 10 00       	movb   $0x0,0x10(%rsp)
    1c03:	48 c1 e3 05          	shl    $0x5,%rbx
    1c07:	0f b6 6c 24 30       	movzbl 0x30(%rsp),%ebp
    1c0c:	4c 89 6c 24 30       	mov    %r13,0x30(%rsp)
    1c11:	48 8d 74 18 28       	lea    0x28(%rax,%rbx,1),%rsi
    1c16:	48 01 c3             	add    %rax,%rbx
    1c19:	48 89 34 24          	mov    %rsi,(%rsp)
    1c1d:	eb 0e                	jmp    1c2d <_dl_catch_exception@@GLIBC_PRIVATE+0x7cd>
    1c1f:	90                   	nop
    1c20:	4d 8b 7f 18          	mov    0x18(%r15),%r15
    1c24:	4d 85 ff             	test   %r15,%r15
    1c27:	0f 84 75 01 00 00    	je     1da2 <_dl_catch_exception@@GLIBC_PRIVATE+0x942>
    1c2d:	41 f6 87 35 03 00 00 	testb  $0x4,0x335(%r15)
    1c34:	04 
    1c35:	75 e9                	jne    1c20 <_dl_catch_exception@@GLIBC_PRIVATE+0x7c0>
    1c37:	41 0f b6 87 34 03 00 	movzbl 0x334(%r15),%eax
    1c3e:	00 
    1c3f:	89 c2                	mov    %eax,%edx
    1c41:	83 e2 03             	and    $0x3,%edx
    1c44:	80 fa 02             	cmp    $0x2,%dl
    1c47:	0f 85 6a 07 00 00    	jne    23b7 <_dl_catch_exception@@GLIBC_PRIVATE+0xf57>
    1c4d:	49 83 bf 58 04 00 00 	cmpq   $0x0,0x458(%r15)
    1c54:	00 
    1c55:	0f 85 9f 05 00 00    	jne    21fa <_dl_catch_exception@@GLIBC_PRIVATE+0xd9a>
    1c5b:	45 84 e4             	test   %r12b,%r12b
    1c5e:	74 21                	je     1c81 <_dl_catch_exception@@GLIBC_PRIVATE+0x821>
    1c60:	48 8b 3c 24          	mov    (%rsp),%rdi
    1c64:	ff 15 e6 0d 03 00    	call   *0x30de6(%rip)        # 32a50 <__rseq_size@@GLIBC_2.35+0x1280>
    1c6a:	48 8b 43 50          	mov    0x50(%rbx),%rax
    1c6e:	48 85 c0             	test   %rax,%rax
    1c71:	0f 85 22 05 00 00    	jne    2199 <_dl_catch_exception@@GLIBC_PRIVATE+0xd39>
    1c77:	48 8b 3c 24          	mov    (%rsp),%rdi
    1c7b:	ff 15 c7 0d 03 00    	call   *0x30dc7(%rip)        # 32a48 <__rseq_size@@GLIBC_2.35+0x1278>
    1c81:	4c 89 ff             	mov    %r15,%rdi
    1c84:	e8 67 2f 01 00       	call   14bf0 <__tunable_get_val@@GLIBC_PRIVATE+0x1820>
    1c89:	49 8b 57 20          	mov    0x20(%r15),%rdx
    1c8d:	48 85 d2             	test   %rdx,%rdx
    1c90:	0f 84 d2 04 00 00    	je     2168 <_dl_catch_exception@@GLIBC_PRIVATE+0xd08>
    1c96:	49 8b 47 18          	mov    0x18(%r15),%rax
    1c9a:	48 89 42 18          	mov    %rax,0x18(%rdx)
    1c9e:	83 6b 08 01          	subl   $0x1,0x8(%rbx)
    1ca2:	48 85 c0             	test   %rax,%rax
    1ca5:	74 04                	je     1cab <_dl_catch_exception@@GLIBC_PRIVATE+0x84b>
    1ca7:	48 89 50 20          	mov    %rdx,0x20(%rax)
    1cab:	4c 89 ff             	mov    %r15,%rdi
    1cae:	e8 dd 2e 00 00       	call   4b90 <__nptl_change_stack_perm@@GLIBC_PRIVATE+0xce0>
    1cb3:	49 8b bf 00 03 00 00 	mov    0x300(%r15),%rdi
    1cba:	ff 15 78 0d 03 00    	call   *0x30d78(%rip)        # 32a38 <__rseq_size@@GLIBC_2.35+0x1268>
    1cc0:	49 8b bf 68 03 00 00 	mov    0x368(%r15),%rdi
    1cc7:	48 83 ff ff          	cmp    $0xffffffffffffffff,%rdi
    1ccb:	74 06                	je     1cd3 <_dl_catch_exception@@GLIBC_PRIVATE+0x873>
    1ccd:	ff 15 65 0d 03 00    	call   *0x30d65(%rip)        # 32a38 <__rseq_size@@GLIBC_2.35+0x1268>
    1cd3:	49 8b bf f0 03 00 00 	mov    0x3f0(%r15),%rdi
    1cda:	ff 15 58 0d 03 00    	call   *0x30d58(%rip)        # 32a38 <__rseq_size@@GLIBC_2.35+0x1268>
    1ce0:	f6 05 d9 0d 03 00 40 	testb  $0x40,0x30dd9(%rip)        # 32ac0 <_rtld_global_ro@@GLIBC_PRIVATE>
    1ce7:	0f 85 f2 04 00 00    	jne    21df <_dl_catch_exception@@GLIBC_PRIVATE+0xd7f>
    1ced:	49 8b 7f 08          	mov    0x8(%r15),%rdi
    1cf1:	ff 15 41 0d 03 00    	call   *0x30d41(%rip)        # 32a38 <__rseq_size@@GLIBC_2.35+0x1268>
    1cf7:	4d 8b 6f 38          	mov    0x38(%r15),%r13
    1cfb:	0f 1f 44 00 00       	nopl   0x0(%rax,%rax,1)
    1d00:	4c 89 ef             	mov    %r13,%rdi
    1d03:	4d 8b 6d 08          	mov    0x8(%r13),%r13
    1d07:	8b 47 10             	mov    0x10(%rdi),%eax
    1d0a:	85 c0                	test   %eax,%eax
    1d0c:	75 06                	jne    1d14 <_dl_catch_exception@@GLIBC_PRIVATE+0x8b4>
    1d0e:	ff 15 24 0d 03 00    	call   *0x30d24(%rip)        # 32a38 <__rseq_size@@GLIBC_2.35+0x1268>
    1d14:	4d 85 ed             	test   %r13,%r13
    1d17:	75 e7                	jne    1d00 <_dl_catch_exception@@GLIBC_PRIVATE+0x8a0>
    1d19:	49 8b bf e8 03 00 00 	mov    0x3e8(%r15),%rdi
    1d20:	ff 15 12 0d 03 00    	call   *0x30d12(%rip)        # 32a38 <__rseq_size@@GLIBC_2.35+0x1268>
    1d26:	49 8b bf b0 03 00 00 	mov    0x3b0(%r15),%rdi
    1d2d:	49 8d 87 88 03 00 00 	lea    0x388(%r15),%rax
    1d34:	48 39 c7             	cmp    %rax,%rdi
    1d37:	74 06                	je     1d3f <_dl_catch_exception@@GLIBC_PRIVATE+0x8df>
    1d39:	ff 15 f9 0c 03 00    	call   *0x30cf9(%rip)        # 32a38 <__rseq_size@@GLIBC_2.35+0x1268>
    1d3f:	41 f6 87 35 03 00 00 	testb  $0x10,0x335(%r15)
    1d46:	10 
    1d47:	74 0d                	je     1d56 <_dl_catch_exception@@GLIBC_PRIVATE+0x8f6>
    1d49:	49 8b bf c0 02 00 00 	mov    0x2c0(%r15),%rdi
    1d50:	ff 15 e2 0c 03 00    	call   *0x30ce2(%rip)        # 32a38 <__rseq_size@@GLIBC_2.35+0x1268>
    1d56:	49 8b bf 48 03 00 00 	mov    0x348(%r15),%rdi
    1d5d:	48 83 ff ff          	cmp    $0xffffffffffffffff,%rdi
    1d61:	74 06                	je     1d69 <_dl_catch_exception@@GLIBC_PRIVATE+0x909>
    1d63:	ff 15 cf 0c 03 00    	call   *0x30ccf(%rip)        # 32a38 <__rseq_size@@GLIBC_2.35+0x1268>
    1d69:	49 8b bf d8 03 00 00 	mov    0x3d8(%r15),%rdi
    1d70:	48 83 ff ff          	cmp    $0xffffffffffffffff,%rdi
    1d74:	74 06                	je     1d7c <_dl_catch_exception@@GLIBC_PRIVATE+0x91c>
    1d76:	ff 15 bc 0c 03 00    	call   *0x30cbc(%rip)        # 32a38 <__rseq_size@@GLIBC_2.35+0x1268>
    1d7c:	4c 39 3d 05 1d 03 00 	cmp    %r15,0x31d05(%rip)        # 33a88 <_rtld_global@@GLIBC_PRIVATE+0xa88>
    1d83:	0f 84 00 04 00 00    	je     2189 <_dl_catch_exception@@GLIBC_PRIVATE+0xd29>
    1d89:	4d 8b 6f 18          	mov    0x18(%r15),%r13
    1d8d:	4c 89 ff             	mov    %r15,%rdi
    1d90:	ff 15 a2 0c 03 00    	call   *0x30ca2(%rip)        # 32a38 <__rseq_size@@GLIBC_2.35+0x1268>
    1d96:	4d 89 ef             	mov    %r13,%r15
    1d99:	4d 85 ff             	test   %r15,%r15
    1d9c:	0f 85 8b fe ff ff    	jne    1c2d <_dl_catch_exception@@GLIBC_PRIVATE+0x7cd>
    1da2:	4c 8b 7c 24 28       	mov    0x28(%rsp),%r15
    1da7:	4c 8b 6c 24 30       	mov    0x30(%rsp),%r13
    1dac:	48 8d 3d 7d 1c 03 00 	lea    0x31c7d(%rip),%rdi        # 33a30 <_rtld_global@@GLIBC_PRIVATE+0xa30>
    1db3:	ff 15 8f 0c 03 00    	call   *0x30c8f(%rip)        # 32a48 <__rseq_size@@GLIBC_2.35+0x1278>
    1db9:	80 7c 24 10 00       	cmpb   $0x0,0x10(%rsp)
    1dbe:	74 2d                	je     1ded <_dl_catch_exception@@GLIBC_PRIVATE+0x98d>
    1dc0:	48 8b 05 c9 22 03 00 	mov    0x322c9(%rip),%rax        # 34090 <_rtld_global@@GLIBC_PRIVATE+0x1090>
    1dc7:	48 83 c0 01          	add    $0x1,%rax
    1dcb:	0f 84 be 05 00 00    	je     238f <_dl_catch_exception@@GLIBC_PRIVATE+0xf2f>
    1dd1:	48 89 05 b8 22 03 00 	mov    %rax,0x322b8(%rip)        # 34090 <_rtld_global@@GLIBC_PRIVATE+0x1090>
    1dd8:	4c 3b 35 99 22 03 00 	cmp    0x32299(%rip),%r14        # 34078 <_rtld_global@@GLIBC_PRIVATE+0x1078>
    1ddf:	75 0c                	jne    1ded <_dl_catch_exception@@GLIBC_PRIVATE+0x98d>
    1de1:	48 8b 44 24 08       	mov    0x8(%rsp),%rax
    1de6:	48 89 05 8b 22 03 00 	mov    %rax,0x3228b(%rip)        # 34078 <_rtld_global@@GLIBC_PRIVATE+0x1078>
    1ded:	48 8d 3d 64 1c 03 00 	lea    0x31c64(%rip),%rdi        # 33a58 <_rtld_global@@GLIBC_PRIVATE+0xa58>
    1df4:	ff 15 4e 0c 03 00    	call   *0x30c4e(%rip)        # 32a48 <__rseq_size@@GLIBC_2.35+0x1278>
    1dfa:	31 f6                	xor    %esi,%esi
    1dfc:	4c 89 ff             	mov    %r15,%rdi
    1dff:	e8 7c 5a 01 00       	call   17880 <_dl_x86_get_cpu_features@@GLIBC_PRIVATE+0x550>
    1e04:	48 8b 44 24 20       	mov    0x20(%rsp),%rax
    1e09:	48 8d 35 f0 11 03 00 	lea    0x311f0(%rip),%rsi        # 33000 <_rtld_global@@GLIBC_PRIVATE>
    1e10:	4c 01 f8             	add    %r15,%rax
    1e13:	48 c1 e0 05          	shl    $0x5,%rax
    1e17:	48 83 3c 06 00       	cmpq   $0x0,(%rsi,%rax,1)
    1e1c:	0f 84 27 05 00 00    	je     2349 <_dl_catch_exception@@GLIBC_PRIVATE+0xee9>
    1e22:	48 8b 5c 24 18       	mov    0x18(%rsp),%rbx
    1e27:	c7 43 18 00 00 00 00 	movl   $0x0,0x18(%rbx)
    1e2e:	e8 dd 06 00 00       	call   2510 <_dl_debug_state@@GLIBC_PRIVATE>
    1e33:	90                   	nop
    1e34:	8b 05 c6 22 03 00    	mov    0x322c6(%rip),%eax        # 34100 <_rtld_global@@GLIBC_PRIVATE+0x1100>
    1e3a:	83 f8 02             	cmp    $0x2,%eax
    1e3d:	0f 84 71 f9 ff ff    	je     17b4 <_dl_catch_exception@@GLIBC_PRIVATE+0x354>
    1e43:	c7 05 b3 22 03 00 00 	movl   $0x0,0x322b3(%rip)        # 34100 <_rtld_global@@GLIBC_PRIVATE+0x1100>
    1e4a:	00 00 00 
    1e4d:	48 83 c4 48          	add    $0x48,%rsp
    1e51:	5b                   	pop    %rbx
    1e52:	5d                   	pop    %rbp
    1e53:	41 5c                	pop    %r12
    1e55:	41 5d                	pop    %r13
    1e57:	41 5e                	pop    %r14
    1e59:	41 5f                	pop    %r15
    1e5b:	c3                   	ret
    1e5c:	0f 1f 40 00          	nopl   0x0(%rax)
    1e60:	c7 05 96 22 03 00 02 	movl   $0x2,0x32296(%rip)        # 34100 <_rtld_global@@GLIBC_PRIVATE+0x1100>
    1e67:	00 00 00 
    1e6a:	f6 05 4f 0c 03 00 40 	testb  $0x40,0x30c4f(%rip)        # 32ac0 <_rtld_global_ro@@GLIBC_PRIVATE>
    1e71:	0f 85 5a 04 00 00    	jne    22d1 <_dl_catch_exception@@GLIBC_PRIVATE+0xe71>
    1e77:	c3                   	ret
    1e78:	0f 1f 84 00 00 00 00 	nopl   0x0(%rax,%rax,1)
    1e7f:	00 
    1e80:	48 8d 50 08          	lea    0x8(%rax),%rdx
    1e84:	48 8b 40 08          	mov    0x8(%rax),%rax
    1e88:	48 85 c0             	test   %rax,%rax
    1e8b:	75 4c                	jne    1ed9 <_dl_catch_exception@@GLIBC_PRIVATE+0xa79>
    1e8d:	e9 c6 f9 ff ff       	jmp    1858 <_dl_catch_exception@@GLIBC_PRIVATE+0x3f8>
    1e92:	66 0f 1f 44 00 00    	nopw   0x0(%rax,%rax,1)
    1e98:	39 f9                	cmp    %edi,%ecx
    1e9a:	73 4c                	jae    1ee8 <_dl_catch_exception@@GLIBC_PRIVATE+0xa88>
    1e9c:	0f b6 88 35 03 00 00 	movzbl 0x335(%rax),%ecx
    1ea3:	f6 c1 04             	test   $0x4,%cl
    1ea6:	75 20                	jne    1ec8 <_dl_catch_exception@@GLIBC_PRIVATE+0xa68>
    1ea8:	83 c9 04             	or     $0x4,%ecx
    1eab:	88 88 35 03 00 00    	mov    %cl,0x335(%rax)
    1eb1:	48 8b 02             	mov    (%rdx),%rax
    1eb4:	8b 88 0c 04 00 00    	mov    0x40c(%rax),%ecx
    1eba:	44 39 c1             	cmp    %r8d,%ecx
    1ebd:	7d 09                	jge    1ec8 <_dl_catch_exception@@GLIBC_PRIVATE+0xa68>
    1ebf:	41 89 c8             	mov    %ecx,%r8d
    1ec2:	49 89 c3             	mov    %rax,%r11
    1ec5:	0f 1f 00             	nopl   (%rax)
    1ec8:	48 8b 42 08          	mov    0x8(%rdx),%rax
    1ecc:	48 83 c2 08          	add    $0x8,%rdx
    1ed0:	48 85 c0             	test   %rax,%rax
    1ed3:	0f 84 7f f9 ff ff    	je     1858 <_dl_catch_exception@@GLIBC_PRIVATE+0x3f8>
    1ed9:	8b 88 0c 04 00 00    	mov    0x40c(%rax),%ecx
    1edf:	83 f9 ff             	cmp    $0xffffffff,%ecx
    1ee2:	74 e4                	je     1ec8 <_dl_catch_exception@@GLIBC_PRIVATE+0xa68>
    1ee4:	85 c9                	test   %ecx,%ecx
    1ee6:	79 b0                	jns    1e98 <_dl_catch_exception@@GLIBC_PRIVATE+0xa38>
    1ee8:	48 8d 0d 01 7f 02 00 	lea    0x27f01(%rip),%rcx        # 29df0 <__rtld_version_placeholder@GLIBC_2.34+0x3580>
    1eef:	ba c4 00 00 00       	mov    $0xc4,%edx
    1ef4:	48 8d 35 63 6a 02 00 	lea    0x26a63(%rip),%rsi        # 2895e <__rtld_version_placeholder@GLIBC_2.34+0x20ee>
    1efb:	48 8d 3d fe 83 02 00 	lea    0x283fe(%rip),%rdi        # 2a300 <__rtld_version_placeholder@GLIBC_2.34+0x3a90>
    1f02:	e8 a9 7a 01 00       	call   199b0 <_dl_audit_symbind_alt@@GLIBC_PRIVATE+0x1e60>
    1f07:	66 0f 1f 84 00 00 00 	nopw   0x0(%rax,%rax,1)
    1f0e:	00 00 
    1f10:	8b 10                	mov    (%rax),%edx
    1f12:	85 d2                	test   %edx,%edx
    1f14:	0f 84 51 f9 ff ff    	je     186b <_dl_catch_exception@@GLIBC_PRIVATE+0x40b>
    1f1a:	48 8d 1c d0          	lea    (%rax,%rdx,8),%rbx
    1f1e:	eb 3d                	jmp    1f5d <_dl_catch_exception@@GLIBC_PRIVATE+0xafd>
    1f20:	39 fa                	cmp    %edi,%edx
    1f22:	73 4c                	jae    1f70 <_dl_catch_exception@@GLIBC_PRIVATE+0xb10>
    1f24:	44 0f b6 99 35 03 00 	movzbl 0x335(%rcx),%r11d
    1f2b:	00 
    1f2c:	41 f6 c3 04          	test   $0x4,%r11b
    1f30:	75 1e                	jne    1f50 <_dl_catch_exception@@GLIBC_PRIVATE+0xaf0>
    1f32:	41 83 cb 04          	or     $0x4,%r11d
    1f36:	44 88 99 35 03 00 00 	mov    %r11b,0x335(%rcx)
    1f3d:	44 39 c2             	cmp    %r8d,%edx
    1f40:	7d 0e                	jge    1f50 <_dl_catch_exception@@GLIBC_PRIVATE+0xaf0>
    1f42:	41 89 d0             	mov    %edx,%r8d
    1f45:	48 89 ce             	mov    %rcx,%rsi
    1f48:	0f 1f 84 00 00 00 00 	nopl   0x0(%rax,%rax,1)
    1f4f:	00 
    1f50:	48 83 c0 08          	add    $0x8,%rax
    1f54:	48 39 d8             	cmp    %rbx,%rax
    1f57:	0f 84 0e f9 ff ff    	je     186b <_dl_catch_exception@@GLIBC_PRIVATE+0x40b>
    1f5d:	48 8b 48 08          	mov    0x8(%rax),%rcx
    1f61:	8b 91 0c 04 00 00    	mov    0x40c(%rcx),%edx
    1f67:	83 fa ff             	cmp    $0xffffffff,%edx
    1f6a:	74 e4                	je     1f50 <_dl_catch_exception@@GLIBC_PRIVATE+0xaf0>
    1f6c:	85 d2                	test   %edx,%edx
    1f6e:	79 b0                	jns    1f20 <_dl_catch_exception@@GLIBC_PRIVATE+0xac0>
    1f70:	48 8d 0d 79 7e 02 00 	lea    0x27e79(%rip),%rcx        # 29df0 <__rtld_version_placeholder@GLIBC_2.34+0x3580>
    1f77:	ba e0 00 00 00       	mov    $0xe0,%edx
    1f7c:	48 8d 35 db 69 02 00 	lea    0x269db(%rip),%rsi        # 2895e <__rtld_version_placeholder@GLIBC_2.34+0x20ee>
    1f83:	48 8d 3d a6 83 02 00 	lea    0x283a6(%rip),%rdi        # 2a330 <__rtld_version_placeholder@GLIBC_2.34+0x3ac0>
    1f8a:	e8 21 7a 01 00       	call   199b0 <_dl_audit_symbind_alt@@GLIBC_PRIVATE+0x1e60>
    1f8f:	90                   	nop
    1f90:	80 be 37 03 00 00 00 	cmpb   $0x0,0x337(%rsi)
    1f97:	0f 85 96 f8 ff ff    	jne    1833 <_dl_catch_exception@@GLIBC_PRIVATE+0x3d3>
    1f9d:	48 8b 86 80 04 00 00 	mov    0x480(%rsi),%rax
    1fa4:	48 85 c0             	test   %rax,%rax
    1fa7:	0f 85 86 f8 ff ff    	jne    1833 <_dl_catch_exception@@GLIBC_PRIVATE+0x3d3>
    1fad:	f6 86 35 03 00 00 04 	testb  $0x4,0x335(%rsi)
    1fb4:	0f 85 79 f8 ff ff    	jne    1833 <_dl_catch_exception@@GLIBC_PRIVATE+0x3d3>
    1fba:	4c 89 de             	mov    %r11,%rsi
    1fbd:	e9 c5 f8 ff ff       	jmp    1887 <_dl_catch_exception@@GLIBC_PRIVATE+0x427>
    1fc2:	48 83 bb a8 00 00 00 	cmpq   $0x0,0xa8(%rbx)
    1fc9:	00 
    1fca:	0f 85 3a f9 ff ff    	jne    190a <_dl_catch_exception@@GLIBC_PRIVATE+0x4aa>
    1fd0:	e9 42 f9 ff ff       	jmp    1917 <_dl_catch_exception@@GLIBC_PRIVATE+0x4b7>
    1fd5:	4d 85 c0             	test   %r8,%r8
    1fd8:	0f 84 15 fb ff ff    	je     1af3 <_dl_catch_exception@@GLIBC_PRIVATE+0x693>
    1fde:	48 c7 83 d8 02 00 00 	movq   $0x0,0x2d8(%rbx)
    1fe5:	00 00 00 00 
    1fe9:	c7 83 e0 02 00 00 00 	movl   $0x0,0x2e0(%rbx)
    1ff0:	00 00 00 
    1ff3:	e9 fb fa ff ff       	jmp    1af3 <_dl_catch_exception@@GLIBC_PRIVATE+0x693>
    1ff8:	48 8b 93 e8 03 00 00 	mov    0x3e8(%rbx),%rdx
    1fff:	48 85 d2             	test   %rdx,%rdx
    2002:	0f 84 b0 f9 ff ff    	je     19b8 <_dl_catch_exception@@GLIBC_PRIVATE+0x558>
    2008:	48 83 7a 08 00       	cmpq   $0x0,0x8(%rdx)
    200d:	0f 84 27 03 00 00    	je     233a <_dl_catch_exception@@GLIBC_PRIVATE+0xeda>
    2013:	b8 01 00 00 00       	mov    $0x1,%eax
    2018:	8d 48 01             	lea    0x1(%rax),%ecx
    201b:	89 c6                	mov    %eax,%esi
    201d:	48 83 3c ca 00       	cmpq   $0x0,(%rdx,%rcx,8)
    2022:	48 89 c8             	mov    %rcx,%rax
    2025:	75 f1                	jne    2018 <_dl_catch_exception@@GLIBC_PRIVATE+0xbb8>
    2027:	8d 4e 02             	lea    0x2(%rsi),%ecx
    202a:	48 c1 e1 03          	shl    $0x3,%rcx
    202e:	4c 8b 9b b0 03 00 00 	mov    0x3b0(%rbx),%r11
    2035:	89 83 e0 02 00 00    	mov    %eax,0x2e0(%rbx)
    203b:	48 01 ca             	add    %rcx,%rdx
    203e:	4c 8d 83 d8 02 00 00 	lea    0x2d8(%rbx),%r8
    2045:	48 89 93 d8 02 00 00 	mov    %rdx,0x2d8(%rbx)
    204c:	49 8b 03             	mov    (%r11),%rax
    204f:	48 85 c0             	test   %rax,%rax
    2052:	74 8a                	je     1fde <_dl_catch_exception@@GLIBC_PRIVATE+0xb7e>
    2054:	bf 02 00 00 00       	mov    $0x2,%edi
    2059:	e9 75 f9 ff ff       	jmp    19d3 <_dl_catch_exception@@GLIBC_PRIVATE+0x573>
    205e:	48 8b 83 a8 03 00 00 	mov    0x3a8(%rbx),%rax
    2065:	4c 89 44 24 38       	mov    %r8,0x38(%rsp)
    206a:	4c 89 4c 24 30       	mov    %r9,0x30(%rsp)
    206f:	48 89 44 24 08       	mov    %rax,0x8(%rsp)
    2074:	48 8d 3c c5 00 00 00 	lea    0x0(,%rax,8),%rdi
    207b:	00 
    207c:	ff 15 ae 09 03 00    	call   *0x309ae(%rip)        # 32a30 <__rseq_size@@GLIBC_2.35+0x1260>
    2082:	49 89 c2             	mov    %rax,%r10
    2085:	48 85 c0             	test   %rax,%rax
    2088:	0f 84 0f 03 00 00    	je     239d <_dl_catch_exception@@GLIBC_PRIVATE+0xf3d>
    208e:	4c 8b 9b b0 03 00 00 	mov    0x3b0(%rbx),%r11
    2095:	4c 8b 4c 24 30       	mov    0x30(%rsp),%r9
    209a:	4c 89 d6             	mov    %r10,%rsi
    209d:	4c 8b 44 24 38       	mov    0x38(%rsp),%r8
    20a2:	49 8b 03             	mov    (%r11),%rax
    20a5:	49 8d 53 08          	lea    0x8(%r11),%rdx
    20a9:	48 85 c0             	test   %rax,%rax
    20ac:	0f 85 aa f9 ff ff    	jne    1a5c <_dl_catch_exception@@GLIBC_PRIVATE+0x5fc>
    20b2:	e9 ff f9 ff ff       	jmp    1ab6 <_dl_catch_exception@@GLIBC_PRIVATE+0x656>
    20b7:	44 88 34 24          	mov    %r14b,(%rsp)
    20bb:	e9 27 fa ff ff       	jmp    1ae7 <_dl_catch_exception@@GLIBC_PRIVATE+0x687>
    20c0:	48 8b 44 24 20       	mov    0x20(%rsp),%rax
    20c5:	48 8d 35 34 0f 03 00 	lea    0x30f34(%rip),%rsi        # 33000 <_rtld_global@@GLIBC_PRIVATE>
    20cc:	4c 01 f8             	add    %r15,%rax
    20cf:	48 c1 e0 05          	shl    $0x5,%rax
    20d3:	48 8b 4c 06 10       	mov    0x10(%rsi,%rax,1),%rcx
    20d8:	8b 79 08             	mov    0x8(%rcx),%edi
    20db:	89 fa                	mov    %edi,%edx
    20dd:	eb 1e                	jmp    20fd <_dl_catch_exception@@GLIBC_PRIVATE+0xc9d>
    20df:	48 8b 31             	mov    (%rcx),%rsi
    20e2:	44 8d 52 ff          	lea    -0x1(%rdx),%r10d
    20e6:	4c 89 d0             	mov    %r10,%rax
    20e9:	4e 8b 14 d6          	mov    (%rsi,%r10,8),%r10
    20ed:	41 f6 82 36 03 00 00 	testb  $0x4,0x336(%r10)
    20f4:	04 
    20f5:	0f 84 03 02 00 00    	je     22fe <_dl_catch_exception@@GLIBC_PRIVATE+0xe9e>
    20fb:	89 c2                	mov    %eax,%edx
    20fd:	85 d2                	test   %edx,%edx
    20ff:	75 de                	jne    20df <_dl_catch_exception@@GLIBC_PRIVATE+0xc7f>
    2101:	89 51 08             	mov    %edx,0x8(%rcx)
    2104:	64 8b 04 25 18 00 00 	mov    %fs:0x18,%eax
    210b:	00 
    210c:	85 c0                	test   %eax,%eax
    210e:	0f 84 a7 fa ff ff    	je     1bbb <_dl_catch_exception@@GLIBC_PRIVATE+0x75b>
    2114:	44 88 0c 24          	mov    %r9b,(%rsp)
    2118:	e8 b3 f2 00 00       	call   113d0 <_dl_mcount@@GLIBC_2.2.5+0x3630>
    211d:	48 8b 1d 74 1f 03 00 	mov    0x31f74(%rip),%rbx        # 34098 <_rtld_global@@GLIBC_PRIVATE+0x1098>
    2124:	44 0f b6 0c 24       	movzbl (%rsp),%r9d
    2129:	48 85 db             	test   %rbx,%rbx
    212c:	0f 84 89 fa ff ff    	je     1bbb <_dl_catch_exception@@GLIBC_PRIVATE+0x75b>
    2132:	48 8b 03             	mov    (%rbx),%rax
    2135:	48 85 c0             	test   %rax,%rax
    2138:	0f 84 7d fa ff ff    	je     1bbb <_dl_catch_exception@@GLIBC_PRIVATE+0x75b>
    213e:	45 89 ce             	mov    %r9d,%r14d
    2141:	48 83 e8 01          	sub    $0x1,%rax
    2145:	48 89 03             	mov    %rax,(%rbx)
    2148:	48 8b 7c c3 08       	mov    0x8(%rbx,%rax,8),%rdi
    214d:	ff 15 e5 08 03 00    	call   *0x308e5(%rip)        # 32a38 <__rseq_size@@GLIBC_2.35+0x1268>
    2153:	48 8b 03             	mov    (%rbx),%rax
    2156:	48 85 c0             	test   %rax,%rax
    2159:	75 e6                	jne    2141 <_dl_catch_exception@@GLIBC_PRIVATE+0xce1>
    215b:	45 89 f1             	mov    %r14d,%r9d
    215e:	e9 58 fa ff ff       	jmp    1bbb <_dl_catch_exception@@GLIBC_PRIVATE+0x75b>
    2163:	0f 1f 44 00 00       	nopl   0x0(%rax,%rax,1)
    2168:	48 83 7c 24 28 00    	cmpq   $0x0,0x28(%rsp)
    216e:	0f 84 62 02 00 00    	je     23d6 <_dl_catch_exception@@GLIBC_PRIVATE+0xf76>
    2174:	49 8b 47 18          	mov    0x18(%r15),%rax
    2178:	48 8b 74 24 18       	mov    0x18(%rsp),%rsi
    217d:	48 89 03             	mov    %rax,(%rbx)
    2180:	48 89 46 08          	mov    %rax,0x8(%rsi)
    2184:	e9 15 fb ff ff       	jmp    1c9e <_dl_catch_exception@@GLIBC_PRIVATE+0x83e>
    2189:	48 c7 05 f4 18 03 00 	movq   $0x0,0x318f4(%rip)        # 33a88 <_rtld_global@@GLIBC_PRIVATE+0xa88>
    2190:	00 00 00 00 
    2194:	e9 f0 fb ff ff       	jmp    1d89 <_dl_catch_exception@@GLIBC_PRIVATE+0x929>
    2199:	48 8b 53 58          	mov    0x58(%rbx),%rdx
    219d:	48 85 d2             	test   %rdx,%rdx
    21a0:	0f 84 d1 fa ff ff    	je     1c77 <_dl_catch_exception@@GLIBC_PRIVATE+0x817>
    21a6:	48 c1 e2 05          	shl    $0x5,%rdx
    21aa:	48 01 c2             	add    %rax,%rdx
    21ad:	eb 0e                	jmp    21bd <_dl_catch_exception@@GLIBC_PRIVATE+0xd5d>
    21af:	90                   	nop
    21b0:	48 83 c0 20          	add    $0x20,%rax
    21b4:	48 39 d0             	cmp    %rdx,%rax
    21b7:	0f 84 ba fa ff ff    	je     1c77 <_dl_catch_exception@@GLIBC_PRIVATE+0x817>
    21bd:	48 83 78 08 00       	cmpq   $0x0,0x8(%rax)
    21c2:	74 ec                	je     21b0 <_dl_catch_exception@@GLIBC_PRIVATE+0xd50>
    21c4:	4c 39 78 18          	cmp    %r15,0x18(%rax)
    21c8:	75 e6                	jne    21b0 <_dl_catch_exception@@GLIBC_PRIVATE+0xd50>
    21ca:	48 c7 40 08 00 00 00 	movq   $0x0,0x8(%rax)
    21d1:	00 
    21d2:	c7 00 00 00 00 00    	movl   $0x0,(%rax)
    21d8:	48 83 6b 60 01       	subq   $0x1,0x60(%rbx)
    21dd:	eb d1                	jmp    21b0 <_dl_catch_exception@@GLIBC_PRIVATE+0xd50>
    21df:	49 8b 57 30          	mov    0x30(%r15),%rdx
    21e3:	49 8b 77 08          	mov    0x8(%r15),%rsi
    21e7:	48 8d 3d aa 81 02 00 	lea    0x281aa(%rip),%rdi        # 2a398 <__rtld_version_placeholder@GLIBC_2.34+0x3b28>
    21ee:	31 c0                	xor    %eax,%eax
    21f0:	e8 db af 00 00       	call   d1d0 <_dl_find_dso_for_object@@GLIBC_PRIVATE+0x1760>
    21f5:	e9 f3 fa ff ff       	jmp    1ced <_dl_catch_exception@@GLIBC_PRIVATE+0x88d>
    21fa:	48 8b 35 67 1e 03 00 	mov    0x31e67(%rip),%rsi        # 34068 <_rtld_global@@GLIBC_PRIVATE+0x1068>
    2201:	48 85 f6             	test   %rsi,%rsi
    2204:	74 1e                	je     2224 <_dl_catch_exception@@GLIBC_PRIVATE+0xdc4>
    2206:	c0 e8 04             	shr    $0x4,%al
    2209:	49 8b bf 78 04 00 00 	mov    0x478(%r15),%rdi
    2210:	31 d2                	xor    %edx,%edx
    2212:	89 c1                	mov    %eax,%ecx
    2214:	83 e1 01             	and    $0x1,%ecx
    2217:	e8 14 f4 ff ff       	call   1630 <_dl_catch_exception@@GLIBC_PRIVATE+0x1d0>
    221c:	84 c0                	test   %al,%al
    221e:	0f 84 c7 00 00 00    	je     22eb <_dl_catch_exception@@GLIBC_PRIVATE+0xe8b>
    2224:	49 8b 87 70 04 00 00 	mov    0x470(%r15),%rax
    222b:	40 88 6c 24 10       	mov    %bpl,0x10(%rsp)
    2230:	48 8d 50 01          	lea    0x1(%rax),%rdx
    2234:	48 83 fa 01          	cmp    $0x1,%rdx
    2238:	0f 86 1d fa ff ff    	jbe    1c5b <_dl_catch_exception@@GLIBC_PRIVATE+0x7fb>
    223e:	48 8b 74 24 08       	mov    0x8(%rsp),%rsi
    2243:	48 85 f6             	test   %rsi,%rsi
    2246:	74 68                	je     22b0 <_dl_catch_exception@@GLIBC_PRIVATE+0xe50>
    2248:	48 39 f0             	cmp    %rsi,%rax
    224b:	74 63                	je     22b0 <_dl_catch_exception@@GLIBC_PRIVATE+0xe50>
    224d:	48 89 c2             	mov    %rax,%rdx
    2250:	49 2b 97 58 04 00 00 	sub    0x458(%r15),%rdx
    2257:	4c 39 f2             	cmp    %r14,%rdx
    225a:	0f 84 83 00 00 00    	je     22e3 <_dl_catch_exception@@GLIBC_PRIVATE+0xe83>
    2260:	48 8b 0d 11 1e 03 00 	mov    0x31e11(%rip),%rcx        # 34078 <_rtld_global@@GLIBC_PRIVATE+0x1078>
    2267:	4c 39 f1             	cmp    %r14,%rcx
    226a:	0f 84 94 01 00 00    	je     2404 <_dl_catch_exception@@GLIBC_PRIVATE+0xfa4>
    2270:	48 39 c8             	cmp    %rcx,%rax
    2273:	0f 84 7f 01 00 00    	je     23f8 <_dl_catch_exception@@GLIBC_PRIVATE+0xf98>
    2279:	49 39 c6             	cmp    %rax,%r14
    227c:	0f 83 d9 f9 ff ff    	jae    1c5b <_dl_catch_exception@@GLIBC_PRIVATE+0x7fb>
    2282:	48 89 54 24 08       	mov    %rdx,0x8(%rsp)
    2287:	49 89 c6             	mov    %rax,%r14
    228a:	e9 cc f9 ff ff       	jmp    1c5b <_dl_catch_exception@@GLIBC_PRIVATE+0x7fb>
    228f:	90                   	nop
    2290:	85 ff                	test   %edi,%edi
    2292:	0f 85 85 01 00 00    	jne    241d <_dl_catch_exception@@GLIBC_PRIVATE+0xfbd>
    2298:	48 8b 1d c1 1e 03 00 	mov    0x31ec1(%rip),%rbx        # 34160 <_r_debug@@GLIBC_2.2.5+0x58>
    229f:	48 85 db             	test   %rbx,%rbx
    22a2:	0f 85 f4 f5 ff ff    	jne    189c <_dl_catch_exception@@GLIBC_PRIVATE+0x43c>
    22a8:	e9 96 fb ff ff       	jmp    1e43 <_dl_catch_exception@@GLIBC_PRIVATE+0x9e3>
    22ad:	0f 1f 00             	nopl   (%rax)
    22b0:	48 89 c6             	mov    %rax,%rsi
    22b3:	49 2b b7 58 04 00 00 	sub    0x458(%r15),%rsi
    22ba:	48 89 74 24 08       	mov    %rsi,0x8(%rsp)
    22bf:	4d 85 f6             	test   %r14,%r14
    22c2:	75 03                	jne    22c7 <_dl_catch_exception@@GLIBC_PRIVATE+0xe67>
    22c4:	49 89 c6             	mov    %rax,%r14
    22c7:	40 88 6c 24 10       	mov    %bpl,0x10(%rsp)
    22cc:	e9 8a f9 ff ff       	jmp    1c5b <_dl_catch_exception@@GLIBC_PRIVATE+0x7fb>
    22d1:	48 8b 77 08          	mov    0x8(%rdi),%rsi
    22d5:	31 c0                	xor    %eax,%eax
    22d7:	48 8d 3d fa 7f 02 00 	lea    0x27ffa(%rip),%rdi        # 2a2d8 <__rtld_version_placeholder@GLIBC_2.34+0x3a68>
    22de:	e9 ed ae 00 00       	jmp    d1d0 <_dl_find_dso_for_object@@GLIBC_PRIVATE+0x1760>
    22e3:	49 89 c6             	mov    %rax,%r14
    22e6:	e9 70 f9 ff ff       	jmp    1c5b <_dl_catch_exception@@GLIBC_PRIVATE+0x7fb>
    22eb:	48 8b 05 7e 1d 03 00 	mov    0x31d7e(%rip),%rax        # 34070 <_rtld_global@@GLIBC_PRIVATE+0x1070>
    22f2:	48 89 05 67 1d 03 00 	mov    %rax,0x31d67(%rip)        # 34060 <_rtld_global@@GLIBC_PRIVATE+0x1060>
    22f9:	e9 26 ff ff ff       	jmp    2224 <_dl_catch_exception@@GLIBC_PRIVATE+0xdc4>
    22fe:	41 8d 04 10          	lea    (%r8,%rdx,1),%eax
    2302:	39 c7                	cmp    %eax,%edi
    2304:	0f 84 f7 fd ff ff    	je     2101 <_dl_catch_exception@@GLIBC_PRIVATE+0xca1>
    230a:	41 89 d0             	mov    %edx,%r8d
    230d:	31 c0                	xor    %eax,%eax
    230f:	31 d2                	xor    %edx,%edx
    2311:	48 8b 3c c6          	mov    (%rsi,%rax,8),%rdi
    2315:	f6 87 36 03 00 00 04 	testb  $0x4,0x336(%rdi)
    231c:	75 0e                	jne    232c <_dl_catch_exception@@GLIBC_PRIVATE+0xecc>
    231e:	39 c2                	cmp    %eax,%edx
    2320:	74 07                	je     2329 <_dl_catch_exception@@GLIBC_PRIVATE+0xec9>
    2322:	41 89 d2             	mov    %edx,%r10d
    2325:	4a 89 3c d6          	mov    %rdi,(%rsi,%r10,8)
    2329:	83 c2 01             	add    $0x1,%edx
    232c:	48 83 c0 01          	add    $0x1,%rax
    2330:	4c 39 c0             	cmp    %r8,%rax
    2333:	75 dc                	jne    2311 <_dl_catch_exception@@GLIBC_PRIVATE+0xeb1>
    2335:	e9 c7 fd ff ff       	jmp    2101 <_dl_catch_exception@@GLIBC_PRIVATE+0xca1>
    233a:	b9 10 00 00 00       	mov    $0x10,%ecx
    233f:	b8 01 00 00 00       	mov    $0x1,%eax
    2344:	e9 e5 fc ff ff       	jmp    202e <_dl_catch_exception@@GLIBC_PRIVATE+0xbce>
    2349:	48 8b 15 b0 16 03 00 	mov    0x316b0(%rip),%rdx        # 33a00 <_rtld_global@@GLIBC_PRIVATE+0xa00>
    2350:	48 8d 42 ff          	lea    -0x1(%rdx),%rax
    2354:	49 39 c7             	cmp    %rax,%r15
    2357:	0f 85 c5 fa ff ff    	jne    1e22 <_dl_catch_exception@@GLIBC_PRIVATE+0x9c2>
    235d:	48 8d 14 92          	lea    (%rdx,%rdx,4),%rdx
    2361:	48 c1 e2 05          	shl    $0x5,%rdx
    2365:	48 8d 94 16 c0 fe ff 	lea    -0x140(%rsi,%rdx,1),%rdx
    236c:	ff 
    236d:	48 8b 32             	mov    (%rdx),%rsi
    2370:	48 89 c1             	mov    %rax,%rcx
    2373:	48 81 ea a0 00 00 00 	sub    $0xa0,%rdx
    237a:	48 83 e8 01          	sub    $0x1,%rax
    237e:	48 85 f6             	test   %rsi,%rsi
    2381:	74 ea                	je     236d <_dl_catch_exception@@GLIBC_PRIVATE+0xf0d>
    2383:	48 89 0d 76 16 03 00 	mov    %rcx,0x31676(%rip)        # 33a00 <_rtld_global@@GLIBC_PRIVATE+0xa00>
    238a:	e9 93 fa ff ff       	jmp    1e22 <_dl_catch_exception@@GLIBC_PRIVATE+0x9c2>
    238f:	48 8d 3d 2a 80 02 00 	lea    0x2802a(%rip),%rdi        # 2a3c0 <__rtld_version_placeholder@GLIBC_2.34+0x3b50>
    2396:	31 c0                	xor    %eax,%eax
    2398:	e8 93 b1 00 00       	call   d530 <_dl_fatal_printf@@GLIBC_PRIVATE>
    239d:	48 8d 0d 0d 66 02 00 	lea    0x2660d(%rip),%rcx        # 289b1 <__rtld_version_placeholder@GLIBC_2.34+0x2141>
    23a4:	31 d2                	xor    %edx,%edx
    23a6:	bf 0c 00 00 00       	mov    $0xc,%edi
    23ab:	48 8d 35 18 66 02 00 	lea    0x26618(%rip),%rsi        # 289ca <__rtld_version_placeholder@GLIBC_2.34+0x215a>
    23b2:	e8 89 ee ff ff       	call   1240 <_dl_signal_error@@GLIBC_PRIVATE>
    23b7:	48 8d 0d 32 7a 02 00 	lea    0x27a32(%rip),%rcx        # 29df0 <__rtld_version_placeholder@GLIBC_2.34+0x3580>
    23be:	ba 01 02 00 00       	mov    $0x201,%edx
    23c3:	48 8d 35 94 65 02 00 	lea    0x26594(%rip),%rsi        # 2895e <__rtld_version_placeholder@GLIBC_2.34+0x20ee>
    23ca:	48 8d 3d 01 66 02 00 	lea    0x26601(%rip),%rdi        # 289d2 <__rtld_version_placeholder@GLIBC_2.34+0x2162>
    23d1:	e8 da 75 01 00       	call   199b0 <_dl_audit_symbind_alt@@GLIBC_PRIVATE+0x1e60>
    23d6:	48 8d 0d 13 7a 02 00 	lea    0x27a13(%rip),%rcx        # 29df0 <__rtld_version_placeholder@GLIBC_2.34+0x3580>
    23dd:	ba 94 02 00 00       	mov    $0x294,%edx
    23e2:	48 8d 35 75 65 02 00 	lea    0x26575(%rip),%rsi        # 2895e <__rtld_version_placeholder@GLIBC_2.34+0x20ee>
    23e9:	48 8d 3d fc 65 02 00 	lea    0x265fc(%rip),%rdi        # 289ec <__rtld_version_placeholder@GLIBC_2.34+0x217c>
    23f0:	e8 bb 75 01 00       	call   199b0 <_dl_audit_symbind_alt@@GLIBC_PRIVATE+0x1e60>
    23f5:	0f 1f 00             	nopl   (%rax)
    23f8:	48 89 15 79 1c 03 00 	mov    %rdx,0x31c79(%rip)        # 34078 <_rtld_global@@GLIBC_PRIVATE+0x1078>
    23ff:	e9 57 f8 ff ff       	jmp    1c5b <_dl_catch_exception@@GLIBC_PRIVATE+0x7fb>
    2404:	48 8b 74 24 08       	mov    0x8(%rsp),%rsi
    2409:	49 89 c6             	mov    %rax,%r14
    240c:	48 89 54 24 08       	mov    %rdx,0x8(%rsp)
    2411:	48 89 35 60 1c 03 00 	mov    %rsi,0x31c60(%rip)        # 34078 <_rtld_global@@GLIBC_PRIVATE+0x1078>
    2418:	e9 3e f8 ff ff       	jmp    1c5b <_dl_catch_exception@@GLIBC_PRIVATE+0x7fb>
    241d:	48 8d 0d cc 79 02 00 	lea    0x279cc(%rip),%rcx        # 29df0 <__rtld_version_placeholder@GLIBC_2.34+0x3580>
    2424:	ba 97 00 00 00       	mov    $0x97,%edx
    2429:	48 8d 35 2e 65 02 00 	lea    0x2652e(%rip),%rsi        # 2895e <__rtld_version_placeholder@GLIBC_2.34+0x20ee>
    2430:	48 8d 3d 44 65 02 00 	lea    0x26544(%rip),%rdi        # 2897b <__rtld_version_placeholder@GLIBC_2.34+0x210b>
    2437:	e8 74 75 01 00       	call   199b0 <_dl_audit_symbind_alt@@GLIBC_PRIVATE+0x1e60>
    243c:	48 8d 0d ad 79 02 00 	lea    0x279ad(%rip),%rcx        # 29df0 <__rtld_version_placeholder@GLIBC_2.34+0x3580>
    2443:	ba fe 00 00 00       	mov    $0xfe,%edx
    2448:	48 8d 35 0f 65 02 00 	lea    0x2650f(%rip),%rsi        # 2895e <__rtld_version_placeholder@GLIBC_2.34+0x20ee>
    244f:	48 8d 3d 0a 7f 02 00 	lea    0x27f0a(%rip),%rdi        # 2a360 <__rtld_version_placeholder@GLIBC_2.34+0x3af0>
    2456:	e8 55 75 01 00       	call   199b0 <_dl_audit_symbind_alt@@GLIBC_PRIVATE+0x1e60>
    245b:	48 8d 0d 8e 79 02 00 	lea    0x2798e(%rip),%rcx        # 29df0 <__rtld_version_placeholder@GLIBC_2.34+0x3580>
    2462:	ba 02 01 00 00       	mov    $0x102,%edx
    2467:	48 8d 35 f0 64 02 00 	lea    0x264f0(%rip),%rsi        # 2895e <__rtld_version_placeholder@GLIBC_2.34+0x20ee>
    246e:	48 8d 3d 15 65 02 00 	lea    0x26515(%rip),%rdi        # 2898a <__rtld_version_placeholder@GLIBC_2.34+0x211a>
    2475:	e8 36 75 01 00       	call   199b0 <_dl_audit_symbind_alt@@GLIBC_PRIVATE+0x1e60>
    247a:	48 8d 0d 6f 79 02 00 	lea    0x2796f(%rip),%rcx        # 29df0 <__rtld_version_placeholder@GLIBC_2.34+0x3580>
    2481:	ba 54 01 00 00       	mov    $0x154,%edx
    2486:	48 8d 35 d1 64 02 00 	lea    0x264d1(%rip),%rsi        # 2895e <__rtld_version_placeholder@GLIBC_2.34+0x20ee>
    248d:	48 8d 3d 0a 65 02 00 	lea    0x2650a(%rip),%rdi        # 2899e <__rtld_version_placeholder@GLIBC_2.34+0x212e>
    2494:	e8 17 75 01 00       	call   199b0 <_dl_audit_symbind_alt@@GLIBC_PRIVATE+0x1e60>
    2499:	0f 1f 80 00 00 00 00 	nopl   0x0(%rax)
    24a0:	f3 0f 1e fa          	endbr64
    24a4:	55                   	push   %rbp
    24a5:	48 8d 2d 5c 15 03 00 	lea    0x3155c(%rip),%rbp        # 33a08 <_rtld_global@@GLIBC_PRIVATE+0xa08>
    24ac:	53                   	push   %rbx
    24ad:	48 89 fb             	mov    %rdi,%rbx
    24b0:	48 89 ef             	mov    %rbp,%rdi
    24b3:	48 83 ec 08          	sub    $0x8,%rsp
    24b7:	ff 15 93 05 03 00    	call   *0x30593(%rip)        # 32a50 <__rseq_size@@GLIBC_2.35+0x1280>
    24bd:	80 bb 37 03 00 00 00 	cmpb   $0x0,0x337(%rbx)
    24c4:	75 14                	jne    24da <_dl_catch_exception@@GLIBC_PRIVATE+0x107a>
    24c6:	8b 83 30 03 00 00    	mov    0x330(%rbx),%eax
    24cc:	85 c0                	test   %eax,%eax
    24ce:	74 20                	je     24f0 <_dl_catch_exception@@GLIBC_PRIVATE+0x1090>
    24d0:	31 f6                	xor    %esi,%esi
    24d2:	48 89 df             	mov    %rbx,%rdi
    24d5:	e8 66 f2 ff ff       	call   1740 <_dl_catch_exception@@GLIBC_PRIVATE+0x2e0>
    24da:	48 83 c4 08          	add    $0x8,%rsp
    24de:	48 89 ef             	mov    %rbp,%rdi
    24e1:	5b                   	pop    %rbx
    24e2:	5d                   	pop    %rbp
    24e3:	ff 25 5f 05 03 00    	jmp    *0x3055f(%rip)        # 32a48 <__rseq_size@@GLIBC_2.35+0x1278>
    24e9:	0f 1f 80 00 00 00 00 	nopl   0x0(%rax)
    24f0:	48 89 ef             	mov    %rbp,%rdi
    24f3:	ff 15 4f 05 03 00    	call   *0x3054f(%rip)        # 32a48 <__rseq_size@@GLIBC_2.35+0x1278>
    24f9:	48 8b 73 08          	mov    0x8(%rbx),%rsi
    24fd:	31 d2                	xor    %edx,%edx
    24ff:	31 ff                	xor    %edi,%edi
    2501:	48 8d 0d f7 64 02 00 	lea    0x264f7(%rip),%rcx        # 289ff <__rtld_version_placeholder@GLIBC_2.34+0x218f>
    2508:	e8 33 ed ff ff       	call   1240 <_dl_signal_error@@GLIBC_PRIVATE>
    250d:	0f 1f 00             	nopl   (%rax)

0000000000002510 <_dl_debug_state@@GLIBC_PRIVATE>:
    2510:	f3 0f 1e fa          	endbr64
    2514:	c3                   	ret
    2515:	66 66 2e 0f 1f 84 00 	data16 cs nopw 0x0(%rax,%rax,1)
    251c:	00 00 00 00 
    2520:	f3 0f 1e fa          	endbr64
    2524:	48 8d 05 dd 1b 03 00 	lea    0x31bdd(%rip),%rax        # 34108 <_r_debug@@GLIBC_2.2.5>
    252b:	48 85 ff             	test   %rdi,%rdi
    252e:	74 14                	je     2544 <_dl_debug_state@@GLIBC_PRIVATE+0x34>
    2530:	48 8d 04 bf          	lea    (%rdi,%rdi,4),%rax
    2534:	48 8d 15 c5 0a 03 00 	lea    0x30ac5(%rip),%rdx        # 33000 <_rtld_global@@GLIBC_PRIVATE>
    253b:	48 c1 e0 05          	shl    $0x5,%rax
    253f:	48 8d 44 02 70       	lea    0x70(%rdx,%rax,1),%rax
    2544:	48 83 78 08 00       	cmpq   $0x0,0x8(%rax)
    2549:	74 05                	je     2550 <_dl_debug_state@@GLIBC_PRIVATE+0x40>
    254b:	c3                   	ret
    254c:	0f 1f 40 00          	nopl   0x0(%rax)
    2550:	48 8d 14 bf          	lea    (%rdi,%rdi,4),%rdx
    2554:	48 8d 0d a5 0a 03 00 	lea    0x30aa5(%rip),%rcx        # 33000 <_rtld_global@@GLIBC_PRIVATE>
    255b:	48 c1 e2 05          	shl    $0x5,%rdx
    255f:	48 8b 14 11          	mov    (%rcx,%rdx,1),%rdx
    2563:	48 89 50 08          	mov    %rdx,0x8(%rax)
    2567:	c3                   	ret
    2568:	0f 1f 84 00 00 00 00 	nopl   0x0(%rax,%rax,1)
    256f:	00 
    2570:	f3 0f 1e fa          	endbr64
    2574:	48 89 fa             	mov    %rdi,%rdx
    2577:	48 85 f6             	test   %rsi,%rsi
    257a:	75 44                	jne    25c0 <_dl_debug_state@@GLIBC_PRIVATE+0xb0>
    257c:	8b 3d 86 1b 03 00    	mov    0x31b86(%rip),%edi        # 34108 <_r_debug@@GLIBC_2.2.5>
    2582:	48 8b 05 8f 1b 03 00 	mov    0x31b8f(%rip),%rax        # 34118 <_r_debug@@GLIBC_2.2.5+0x10>
    2589:	48 8b 0d 80 1b 03 00 	mov    0x31b80(%rip),%rcx        # 34110 <_r_debug@@GLIBC_2.2.5+0x8>
    2590:	85 ff                	test   %edi,%edi
    2592:	0f 85 d8 00 00 00    	jne    2670 <_dl_debug_state@@GLIBC_PRIVATE+0x160>
    2598:	c7 05 66 1b 03 00 01 	movl   $0x1,0x31b66(%rip)        # 34108 <_r_debug@@GLIBC_2.2.5>
    259f:	00 00 00 
    25a2:	48 85 c0             	test   %rax,%rax
    25a5:	0f 84 ce 00 00 00    	je     2679 <_dl_debug_state@@GLIBC_PRIVATE+0x169>
    25ab:	48 85 c9             	test   %rcx,%rcx
    25ae:	0f 84 0c 01 00 00    	je     26c0 <_dl_debug_state@@GLIBC_PRIVATE+0x1b0>
    25b4:	48 8d 0d 4d 1b 03 00 	lea    0x31b4d(%rip),%rcx        # 34108 <_r_debug@@GLIBC_2.2.5>
    25bb:	48 89 c8             	mov    %rcx,%rax
    25be:	c3                   	ret
    25bf:	90                   	nop
    25c0:	4c 8d 04 b5 00 00 00 	lea    0x0(,%rsi,4),%r8
    25c7:	00 
    25c8:	4c 8d 0d 31 0a 03 00 	lea    0x30a31(%rip),%r9        # 33000 <_rtld_global@@GLIBC_PRIVATE>
    25cf:	49 8d 04 30          	lea    (%r8,%rsi,1),%rax
    25d3:	48 c1 e0 05          	shl    $0x5,%rax
    25d7:	49 8d 3c 01          	lea    (%r9,%rax,1),%rdi
    25db:	49 8d 4c 01 70       	lea    0x70(%r9,%rax,1),%rcx
    25e0:	48 83 bf 80 00 00 00 	cmpq   $0x0,0x80(%rdi)
    25e7:	00 
    25e8:	0f 85 9a 00 00 00    	jne    2688 <_dl_debug_state@@GLIBC_PRIVATE+0x178>
    25ee:	48 8b 05 3b 1b 03 00 	mov    0x31b3b(%rip),%rax        # 34130 <_r_debug@@GLIBC_2.2.5+0x28>
    25f5:	48 8d 3d 34 1b 03 00 	lea    0x31b34(%rip),%rdi        # 34130 <_r_debug@@GLIBC_2.2.5+0x28>
    25fc:	48 85 c0             	test   %rax,%rax
    25ff:	74 17                	je     2618 <_dl_debug_state@@GLIBC_PRIVATE+0x108>
    2601:	0f 1f 80 00 00 00 00 	nopl   0x0(%rax)
    2608:	48 89 c7             	mov    %rax,%rdi
    260b:	48 8b 40 28          	mov    0x28(%rax),%rax
    260f:	48 85 c0             	test   %rax,%rax
    2612:	75 f4                	jne    2608 <_dl_debug_state@@GLIBC_PRIVATE+0xf8>
    2614:	48 83 c7 28          	add    $0x28,%rdi
    2618:	49 01 f0             	add    %rsi,%r8
    261b:	49 c1 e0 05          	shl    $0x5,%r8
    261f:	43 c7 44 01 70 02 00 	movl   $0x2,0x70(%r9,%r8,1)
    2626:	00 00 
    2628:	48 85 d2             	test   %rdx,%rdx
    262b:	48 0f 44 15 f5 1a 03 	cmove  0x31af5(%rip),%rdx        # 34128 <_r_debug@@GLIBC_2.2.5+0x20>
    2632:	00 
    2633:	48 8d 05 d6 fe ff ff 	lea    -0x12a(%rip),%rax        # 2510 <_dl_debug_state@@GLIBC_PRIVATE>
    263a:	48 83 79 08 00       	cmpq   $0x0,0x8(%rcx)
    263f:	48 89 41 10          	mov    %rax,0x10(%rcx)
    2643:	48 89 51 20          	mov    %rdx,0x20(%rcx)
    2647:	48 c7 41 28 00 00 00 	movq   $0x0,0x28(%rcx)
    264e:	00 
    264f:	74 4f                	je     26a0 <_dl_debug_state@@GLIBC_PRIVATE+0x190>
    2651:	48 85 ff             	test   %rdi,%rdi
    2654:	74 0d                	je     2663 <_dl_debug_state@@GLIBC_PRIVATE+0x153>
    2656:	48 89 0f             	mov    %rcx,(%rdi)
    2659:	c7 05 a5 1a 03 00 02 	movl   $0x2,0x31aa5(%rip)        # 34108 <_r_debug@@GLIBC_2.2.5>
    2660:	00 00 00 
    2663:	48 89 c8             	mov    %rcx,%rax
    2666:	c3                   	ret
    2667:	66 0f 1f 84 00 00 00 	nopw   0x0(%rax,%rax,1)
    266e:	00 00 
    2670:	48 85 c0             	test   %rax,%rax
    2673:	0f 85 32 ff ff ff    	jne    25ab <_dl_debug_state@@GLIBC_PRIVATE+0x9b>
    2679:	31 ff                	xor    %edi,%edi
    267b:	48 8d 0d 86 1a 03 00 	lea    0x31a86(%rip),%rcx        # 34108 <_r_debug@@GLIBC_2.2.5>
    2682:	eb a4                	jmp    2628 <_dl_debug_state@@GLIBC_PRIVATE+0x118>
    2684:	0f 1f 40 00          	nopl   0x0(%rax)
    2688:	48 83 7f 78 00       	cmpq   $0x0,0x78(%rdi)
    268d:	75 d4                	jne    2663 <_dl_debug_state@@GLIBC_PRIVATE+0x153>
    268f:	48 8b 37             	mov    (%rdi),%rsi
    2692:	4a 89 74 08 78       	mov    %rsi,0x78(%rax,%r9,1)
    2697:	eb ca                	jmp    2663 <_dl_debug_state@@GLIBC_PRIVATE+0x153>
    2699:	0f 1f 80 00 00 00 00 	nopl   0x0(%rax)
    26a0:	48 8d 04 b6          	lea    (%rsi,%rsi,4),%rax
    26a4:	48 8d 15 55 09 03 00 	lea    0x30955(%rip),%rdx        # 33000 <_rtld_global@@GLIBC_PRIVATE>
    26ab:	48 c1 e0 05          	shl    $0x5,%rax
    26af:	48 8b 04 02          	mov    (%rdx,%rax,1),%rax
    26b3:	48 89 41 08          	mov    %rax,0x8(%rcx)
    26b7:	eb 98                	jmp    2651 <_dl_debug_state@@GLIBC_PRIVATE+0x141>
    26b9:	0f 1f 80 00 00 00 00 	nopl   0x0(%rax)
    26c0:	48 8b 05 39 09 03 00 	mov    0x30939(%rip),%rax        # 33000 <_rtld_global@@GLIBC_PRIVATE>
    26c7:	48 89 05 42 1a 03 00 	mov    %rax,0x31a42(%rip)        # 34110 <_r_debug@@GLIBC_2.2.5+0x8>
    26ce:	e9 e1 fe ff ff       	jmp    25b4 <_dl_debug_state@@GLIBC_PRIVATE+0xa4>
    26d3:	66 2e 0f 1f 84 00 00 	cs nopw 0x0(%rax,%rax,1)
    26da:	00 00 00 
    26dd:	0f 1f 00             	nopl   (%rax)
    26e0:	f3 0f 1e fa          	endbr64
    26e4:	53                   	push   %rbx
    26e5:	48 89 fb             	mov    %rdi,%rbx
    26e8:	48 8b 3f             	mov    (%rdi),%rdi
    26eb:	8b 4b 08             	mov    0x8(%rbx),%ecx
    26ee:	48 8b 73 18          	mov    0x18(%rbx),%rsi
    26f2:	0f b6 87 34 03 00 00 	movzbl 0x334(%rdi),%eax
    26f9:	44 8b 43 0c          	mov    0xc(%rbx),%r8d
    26fd:	4c 8b 4f 30          	mov    0x30(%rdi),%r9
    2701:	89 c2                	mov    %eax,%edx
    2703:	83 e2 03             	and    $0x3,%edx
    2706:	a8 03                	test   $0x3,%al
    2708:	b8 01 00 00 00       	mov    $0x1,%eax
    270d:	0f 44 d0             	cmove  %eax,%edx
    2710:	e8 8b 5d 00 00       	call   84a0 <__nptl_change_stack_perm@@GLIBC_PRIVATE+0x45f0>
    2715:	48 89 43 20          	mov    %rax,0x20(%rbx)
    2719:	5b                   	pop    %rbx
    271a:	c3                   	ret
    271b:	0f 1f 44 00 00       	nopl   0x0(%rax,%rax,1)
    2720:	f3 0f 1e fa          	endbr64
    2724:	55                   	push   %rbp
    2725:	49 89 fa             	mov    %rdi,%r10
    2728:	48 89 f7             	mov    %rsi,%rdi
    272b:	48 89 e5             	mov    %rsp,%rbp
    272e:	41 57                	push   %r15
    2730:	41 56                	push   %r14
    2732:	41 55                	push   %r13
    2734:	41 89 cd             	mov    %ecx,%r13d
    2737:	41 54                	push   %r12
    2739:	53                   	push   %rbx
    273a:	89 d3                	mov    %edx,%ebx
    273c:	8d 43 02             	lea    0x2(%rbx),%eax
    273f:	48 8d 04 40          	lea    (%rax,%rax,2),%rax
    2743:	48 8d 04 c5 17 00 00 	lea    0x17(,%rax,8),%rax
    274a:	00 
    274b:	48 81 ec d8 04 00 00 	sub    $0x4d8,%rsp
    2752:	44 89 85 30 fb ff ff 	mov    %r8d,-0x4d0(%rbp)
    2759:	48 c1 e8 04          	shr    $0x4,%rax
    275d:	48 89 e2             	mov    %rsp,%rdx
    2760:	48 c1 e0 04          	shl    $0x4,%rax
    2764:	48 89 c1             	mov    %rax,%rcx
    2767:	48 81 e1 00 f0 ff ff 	and    $0xfffffffffffff000,%rcx
    276e:	48 29 ca             	sub    %rcx,%rdx
    2771:	48 39 d4             	cmp    %rdx,%rsp
    2774:	74 15                	je     278b <_dl_debug_state@@GLIBC_PRIVATE+0x27b>
    2776:	48 81 ec 00 10 00 00 	sub    $0x1000,%rsp
    277d:	48 83 8c 24 f8 0f 00 	orq    $0x0,0xff8(%rsp)
    2784:	00 00 
    2786:	48 39 d4             	cmp    %rdx,%rsp
    2789:	75 eb                	jne    2776 <_dl_debug_state@@GLIBC_PRIVATE+0x266>
    278b:	25 ff 0f 00 00       	and    $0xfff,%eax
    2790:	48 29 c4             	sub    %rax,%rsp
    2793:	48 85 c0             	test   %rax,%rax
    2796:	0f 85 fc 0c 00 00    	jne    3498 <_dl_debug_state@@GLIBC_PRIVATE+0xf88>
    279c:	41 0f b6 82 34 03 00 	movzbl 0x334(%r10),%eax
    27a3:	00 
    27a4:	48 8d 74 24 0f       	lea    0xf(%rsp),%rsi
    27a9:	48 83 e6 f0          	and    $0xfffffffffffffff0,%rsi
    27ad:	83 e0 3f             	and    $0x3f,%eax
    27b0:	48 8d 56 18          	lea    0x18(%rsi),%rdx
    27b4:	c7 06 00 00 00 00    	movl   $0x0,(%rsi)
    27ba:	49 89 f3             	mov    %rsi,%r11
    27bd:	83 c8 40             	or     $0x40,%eax
    27c0:	4c 89 56 08          	mov    %r10,0x8(%rsi)
    27c4:	48 89 56 10          	mov    %rdx,0x10(%rsi)
    27c8:	41 88 82 34 03 00 00 	mov    %al,0x334(%r10)
    27cf:	85 db                	test   %ebx,%ebx
    27d1:	0f 84 6b 0d 00 00    	je     3542 <_dl_debug_state@@GLIBC_PRIVATE+0x1032>
    27d7:	8d 43 01             	lea    0x1(%rbx),%eax
    27da:	49 89 f8             	mov    %rdi,%r8
    27dd:	b9 01 00 00 00       	mov    $0x1,%ecx
    27e2:	89 85 38 fb ff ff    	mov    %eax,-0x4c8(%rbp)
    27e8:	0f 1f 84 00 00 00 00 	nopl   0x0(%rax,%rax,1)
    27ef:	00 
    27f0:	8d 41 01             	lea    0x1(%rcx),%eax
    27f3:	49 8b 38             	mov    (%r8),%rdi
    27f6:	41 89 c9             	mov    %ecx,%r9d
    27f9:	c7 02 00 00 00 00    	movl   $0x0,(%rdx)
    27ff:	48 89 c1             	mov    %rax,%rcx
    2802:	48 8d 04 40          	lea    (%rax,%rax,2),%rax
    2806:	49 83 c0 08          	add    $0x8,%r8
    280a:	48 83 c2 18          	add    $0x18,%rdx
    280e:	48 8d 04 c6          	lea    (%rsi,%rax,8),%rax
    2812:	66 48 0f 6e c7       	movq   %rdi,%xmm0
    2817:	66 48 0f 6e c8       	movq   %rax,%xmm1
    281c:	66 0f 6c c1          	punpcklqdq %xmm1,%xmm0
    2820:	0f 11 42 f0          	movups %xmm0,-0x10(%rdx)
    2824:	0f b6 87 34 03 00 00 	movzbl 0x334(%rdi),%eax
    282b:	83 e0 3f             	and    $0x3f,%eax
    282e:	83 c8 40             	or     $0x40,%eax
    2831:	88 87 34 03 00 00    	mov    %al,0x334(%rdi)
    2837:	44 39 cb             	cmp    %r9d,%ebx
    283a:	75 b4                	jne    27f0 <_dl_debug_state@@GLIBC_PRIVATE+0x2e0>
    283c:	48 8d 04 5b          	lea    (%rbx,%rbx,2),%rax
    2840:	4c 8b 76 08          	mov    0x8(%rsi),%r14
    2844:	48 8d 04 c6          	lea    (%rsi,%rax,8),%rax
    2848:	48 89 85 40 fb ff ff 	mov    %rax,-0x4c0(%rbp)
    284f:	44 8b 3d 3a 1a 03 00 	mov    0x31a3a(%rip),%r15d        # 34290 <__nptl_initial_report_events@@GLIBC_PRIVATE+0xc0>
    2856:	48 89 f1             	mov    %rsi,%rcx
    2859:	48 8b 85 40 fb ff ff 	mov    -0x4c0(%rbp),%rax
    2860:	48 8d 9d d0 fb ff ff 	lea    -0x430(%rbp),%rbx
    2867:	48 89 9d c0 fb ff ff 	mov    %rbx,-0x440(%rbp)
    286e:	48 c7 40 10 00 00 00 	movq   $0x0,0x10(%rax)
    2875:	00 
    2876:	48 c7 85 c8 fb ff ff 	movq   $0x400,-0x438(%rbp)
    287d:	00 04 00 00 
    2881:	c7 05 05 1a 03 00 00 	movl   $0x0,0x31a05(%rip)        # 34290 <__nptl_initial_report_events@@GLIBC_PRIVATE+0xc0>
    2888:	00 00 00 
    288b:	4c 89 9d 10 fb ff ff 	mov    %r11,-0x4f0(%rbp)
    2892:	44 89 bd 0c fb ff ff 	mov    %r15d,-0x4f4(%rbp)
    2899:	4c 89 95 28 fb ff ff 	mov    %r10,-0x4d8(%rbp)
    28a0:	44 89 ad 34 fb ff ff 	mov    %r13d,-0x4cc(%rbp)
    28a7:	48 89 9d 18 fb ff ff 	mov    %rbx,-0x4e8(%rbp)
    28ae:	4d 8b 86 d8 02 00 00 	mov    0x2d8(%r14),%r8
    28b5:	c7 01 01 00 00 00    	movl   $0x1,(%rcx)
    28bb:	4d 85 c0             	test   %r8,%r8
    28be:	0f 84 bc 09 00 00    	je     3280 <_dl_debug_state@@GLIBC_PRIVATE+0xd70>
    28c4:	45 31 c0             	xor    %r8d,%r8d
    28c7:	49 83 7e 48 00       	cmpq   $0x0,0x48(%r14)
    28cc:	0f 85 0e 01 00 00    	jne    29e0 <_dl_debug_state@@GLIBC_PRIVATE+0x4d0>
    28d2:	49 83 be 00 02 00 00 	cmpq   $0x0,0x200(%r14)
    28d9:	00 
    28da:	0f 85 00 01 00 00    	jne    29e0 <_dl_debug_state@@GLIBC_PRIVATE+0x4d0>
    28e0:	45 31 ed             	xor    %r13d,%r13d
    28e3:	49 83 be f0 01 00 00 	cmpq   $0x0,0x1f0(%r14)
    28ea:	00 
    28eb:	0f 85 ef 00 00 00    	jne    29e0 <_dl_debug_state@@GLIBC_PRIVATE+0x4d0>
    28f1:	4d 85 c0             	test   %r8,%r8
    28f4:	0f 84 94 00 00 00    	je     298e <_dl_debug_state@@GLIBC_PRIVATE+0x47e>
    28fa:	44 89 e8             	mov    %r13d,%eax
    28fd:	43 8d 7c 2d 03       	lea    0x3(%r13,%r13,1),%edi
    2902:	41 8d 5d 01          	lea    0x1(%r13),%ebx
    2906:	48 89 8d 60 fb ff ff 	mov    %rcx,-0x4a0(%rbp)
    290d:	49 c7 04 c0 00 00 00 	movq   $0x0,(%r8,%rax,8)
    2914:	00 
    2915:	48 c1 e7 03          	shl    $0x3,%rdi
    2919:	4c 89 85 68 fb ff ff 	mov    %r8,-0x498(%rbp)
    2920:	ff 15 0a 01 03 00    	call   *0x3010a(%rip)        # 32a30 <__rseq_size@@GLIBC_2.35+0x1260>
    2926:	4c 8b 85 68 fb ff ff 	mov    -0x498(%rbp),%r8
    292d:	48 8b 8d 60 fb ff ff 	mov    -0x4a0(%rbp),%rcx
    2934:	48 85 c0             	test   %rax,%rax
    2937:	49 89 c7             	mov    %rax,%r15
    293a:	0f 84 c8 0d 00 00    	je     3708 <_dl_debug_state@@GLIBC_PRIVATE+0x11f8>
    2940:	4c 89 30             	mov    %r14,(%rax)
    2943:	89 d8                	mov    %ebx,%eax
    2945:	4c 89 c6             	mov    %r8,%rsi
    2948:	49 8d 7f 08          	lea    0x8(%r15),%rdi
    294c:	48 8d 1c c5 00 00 00 	lea    0x0(,%rax,8),%rbx
    2953:	00 
    2954:	48 89 8d 68 fb ff ff 	mov    %rcx,-0x498(%rbp)
    295b:	48 89 da             	mov    %rbx,%rdx
    295e:	67 e8 9c f6 01 00    	addr32 call 22000 <_dl_audit_symbind_alt@@GLIBC_PRIVATE+0xa4b0>
    2964:	41 8d 45 02          	lea    0x2(%r13),%eax
    2968:	48 89 da             	mov    %rbx,%rdx
    296b:	4c 89 fe             	mov    %r15,%rsi
    296e:	49 8d 3c c7          	lea    (%r15,%rax,8),%rdi
    2972:	67 e8 88 f6 01 00    	addr32 call 22000 <_dl_audit_symbind_alt@@GLIBC_PRIVATE+0xa4b0>
    2978:	4d 89 be e8 03 00 00 	mov    %r15,0x3e8(%r14)
    297f:	41 80 8e 36 03 00 00 	orb    $0x10,0x336(%r14)
    2986:	10 
    2987:	48 8b 8d 68 fb ff ff 	mov    -0x498(%rbp),%rcx
    298e:	8b 31                	mov    (%rcx),%esi
    2990:	85 f6                	test   %esi,%esi
    2992:	75 12                	jne    29a6 <_dl_debug_state@@GLIBC_PRIVATE+0x496>
    2994:	4c 8b 71 08          	mov    0x8(%rcx),%r14
    2998:	e9 11 ff ff ff       	jmp    28ae <_dl_debug_state@@GLIBC_PRIVATE+0x39e>
    299d:	0f 1f 00             	nopl   (%rax)
    29a0:	8b 11                	mov    (%rcx),%edx
    29a2:	85 d2                	test   %edx,%edx
    29a4:	74 ee                	je     2994 <_dl_debug_state@@GLIBC_PRIVATE+0x484>
    29a6:	48 8b 49 10          	mov    0x10(%rcx),%rcx
    29aa:	48 85 c9             	test   %rcx,%rcx
    29ad:	75 f1                	jne    29a0 <_dl_debug_state@@GLIBC_PRIVATE+0x490>
    29af:	4c 8b 9d 10 fb ff ff 	mov    -0x4f0(%rbp),%r11
    29b6:	44 8b bd 0c fb ff ff 	mov    -0x4f4(%rbp),%r15d
    29bd:	45 31 e4             	xor    %r12d,%r12d
    29c0:	4c 8b 95 28 fb ff ff 	mov    -0x4d8(%rbp),%r10
    29c7:	44 8b ad 34 fb ff ff 	mov    -0x4cc(%rbp),%r13d
    29ce:	48 8b 9d 18 fb ff ff 	mov    -0x4e8(%rbp),%rbx
    29d5:	e9 76 04 00 00       	jmp    2e50 <_dl_debug_state@@GLIBC_PRIVATE+0x940>
    29da:	66 0f 1f 44 00 00    	nopw   0x0(%rax,%rax,1)
    29e0:	49 8b 46 68          	mov    0x68(%r14),%rax
    29e4:	4c 8b 48 08          	mov    0x8(%rax),%r9
    29e8:	41 f6 86 36 03 00 00 	testb  $0x20,0x336(%r14)
    29ef:	20 
    29f0:	74 03                	je     29f5 <_dl_debug_state@@GLIBC_PRIVATE+0x4e5>
    29f2:	4d 03 0e             	add    (%r14),%r9
    29f5:	8b 85 34 fb ff ff    	mov    -0x4cc(%rbp),%eax
    29fb:	49 8b 5e 10          	mov    0x10(%r14),%rbx
    29ff:	4c 89 8d a0 fb ff ff 	mov    %r9,-0x460(%rbp)
    2a06:	4c 89 b5 90 fb ff ff 	mov    %r14,-0x470(%rbp)
    2a0d:	89 85 98 fb ff ff    	mov    %eax,-0x468(%rbp)
    2a13:	8b 85 30 fb ff ff    	mov    -0x4d0(%rbp),%eax
    2a19:	89 85 9c fb ff ff    	mov    %eax,-0x464(%rbp)
    2a1f:	48 8b 03             	mov    (%rbx),%rax
    2a22:	48 85 c0             	test   %rax,%rax
    2a25:	0f 84 48 0c 00 00    	je     3673 <_dl_debug_state@@GLIBC_PRIVATE+0x1163>
    2a2b:	48 89 8d 20 fb ff ff 	mov    %rcx,-0x4e0(%rbp)
    2a32:	45 31 ed             	xor    %r13d,%r13d
    2a35:	4c 89 85 60 fb ff ff 	mov    %r8,-0x4a0(%rbp)
    2a3c:	48 89 8d 00 fb ff ff 	mov    %rcx,-0x500(%rbp)
    2a43:	4c 89 8d 68 fb ff ff 	mov    %r9,-0x498(%rbp)
    2a4a:	66 0f 1f 44 00 00    	nopw   0x0(%rax,%rax,1)
    2a50:	48 83 f8 01          	cmp    $0x1,%rax
    2a54:	0f 85 06 02 00 00    	jne    2c60 <_dl_debug_state@@GLIBC_PRIVATE+0x750>
    2a5a:	4c 8b a5 68 fb ff ff 	mov    -0x498(%rbp),%r12
    2a61:	4c 03 63 08          	add    0x8(%rbx),%r12
    2a65:	4c 89 e7             	mov    %r12,%rdi
    2a68:	e8 33 35 00 00       	call   5fa0 <__nptl_change_stack_perm@@GLIBC_PRIVATE+0x20f0>
    2a6d:	49 89 c7             	mov    %rax,%r15
    2a70:	48 85 c0             	test   %rax,%rax
    2a73:	0f 84 c7 01 00 00    	je     2c40 <_dl_debug_state@@GLIBC_PRIVATE+0x730>
    2a79:	44 8b 05 e8 ff 02 00 	mov    0x2ffe8(%rip),%r8d        # 32a68 <__libc_enable_secure@@GLIBC_PRIVATE>
    2a80:	45 85 c0             	test   %r8d,%r8d
    2a83:	0f 85 f2 0b 00 00    	jne    367b <_dl_debug_state@@GLIBC_PRIVATE+0x116b>
    2a89:	4c 89 e7             	mov    %r12,%rdi
    2a8c:	e8 4f 17 02 00       	call   241e0 <_dl_audit_symbind_alt@@GLIBC_PRIVATE+0xc690>
    2a91:	49 8b be 68 03 00 00 	mov    0x368(%r14),%rdi
    2a98:	48 89 c2             	mov    %rax,%rdx
    2a9b:	48 89 c1             	mov    %rax,%rcx
    2a9e:	48 85 ff             	test   %rdi,%rdi
    2aa1:	0f 84 f9 02 00 00    	je     2da0 <_dl_debug_state@@GLIBC_PRIVATE+0x890>
    2aa7:	48 83 ff ff          	cmp    $0xffffffffffffffff,%rdi
    2aab:	0f 84 9f 01 00 00    	je     2c50 <_dl_debug_state@@GLIBC_PRIVATE+0x740>
    2ab1:	48 89 85 48 fb ff ff 	mov    %rax,-0x4b8(%rbp)
    2ab8:	48 89 85 50 fb ff ff 	mov    %rax,-0x4b0(%rbp)
    2abf:	e8 1c 17 02 00       	call   241e0 <_dl_audit_symbind_alt@@GLIBC_PRIVATE+0xc690>
    2ac4:	48 8b 95 48 fb ff ff 	mov    -0x4b8(%rbp),%rdx
    2acb:	48 8b 8d 50 fb ff ff 	mov    -0x4b0(%rbp),%rcx
    2ad2:	48 8b 35 f7 ff 02 00 	mov    0x2fff7(%rip),%rsi        # 32ad0 <_rtld_global_ro@@GLIBC_PRIVATE+0x10>
    2ad9:	48 39 f0             	cmp    %rsi,%rax
    2adc:	48 0f 42 c6          	cmovb  %rsi,%rax
    2ae0:	48 83 f8 04          	cmp    $0x4,%rax
    2ae4:	76 0c                	jbe    2af2 <_dl_debug_state@@GLIBC_PRIVATE+0x5e2>
    2ae6:	48 83 e8 04          	sub    $0x4,%rax
    2aea:	49 0f af c7          	imul   %r15,%rax
    2aee:	48 8d 0c 02          	lea    (%rdx,%rax,1),%rcx
    2af2:	48 8d 41 17          	lea    0x17(%rcx),%rax
    2af6:	48 89 e1             	mov    %rsp,%rcx
    2af9:	48 89 c2             	mov    %rax,%rdx
    2afc:	48 25 00 f0 ff ff    	and    $0xfffffffffffff000,%rax
    2b02:	48 29 c1             	sub    %rax,%rcx
    2b05:	48 83 e2 f0          	and    $0xfffffffffffffff0,%rdx
    2b09:	48 39 cc             	cmp    %rcx,%rsp
    2b0c:	74 15                	je     2b23 <_dl_debug_state@@GLIBC_PRIVATE+0x613>
    2b0e:	48 81 ec 00 10 00 00 	sub    $0x1000,%rsp
    2b15:	48 83 8c 24 f8 0f 00 	orq    $0x0,0xff8(%rsp)
    2b1c:	00 00 
    2b1e:	48 39 cc             	cmp    %rcx,%rsp
    2b21:	75 eb                	jne    2b0e <_dl_debug_state@@GLIBC_PRIVATE+0x5fe>
    2b23:	81 e2 ff 0f 00 00    	and    $0xfff,%edx
    2b29:	48 29 d4             	sub    %rdx,%rsp
    2b2c:	48 85 d2             	test   %rdx,%rdx
    2b2f:	74 06                	je     2b37 <_dl_debug_state@@GLIBC_PRIVATE+0x627>
    2b31:	48 83 4c 14 f8 00    	orq    $0x0,-0x8(%rsp,%rdx,1)
    2b37:	48 8d 54 24 0f       	lea    0xf(%rsp),%rdx
    2b3c:	4c 89 e6             	mov    %r12,%rsi
    2b3f:	4c 89 f7             	mov    %r14,%rdi
    2b42:	48 83 e2 f0          	and    $0xfffffffffffffff0,%rdx
    2b46:	e8 05 35 00 00       	call   6050 <__nptl_change_stack_perm@@GLIBC_PRIVATE+0x21a0>
    2b4b:	80 38 00             	cmpb   $0x0,(%rax)
    2b4e:	0f 84 24 02 00 00    	je     2d78 <_dl_debug_state@@GLIBC_PRIVATE+0x868>
    2b54:	48 8d 95 90 fb ff ff 	lea    -0x470(%rbp),%rdx
    2b5b:	48 8d bd 70 fb ff ff 	lea    -0x490(%rbp),%rdi
    2b62:	48 89 85 a8 fb ff ff 	mov    %rax,-0x458(%rbp)
    2b69:	48 8d 35 70 fb ff ff 	lea    -0x490(%rip),%rsi        # 26e0 <_dl_debug_state@@GLIBC_PRIVATE+0x1d0>
    2b70:	e8 eb e8 ff ff       	call   1460 <_dl_catch_exception@@GLIBC_PRIVATE>
    2b75:	48 83 bd 78 fb ff ff 	cmpq   $0x0,-0x488(%rbp)
    2b7c:	00 
    2b7d:	0f 85 9d 02 00 00    	jne    2e20 <_dl_debug_state@@GLIBC_PRIVATE+0x910>
    2b83:	48 8b 85 b0 fb ff ff 	mov    -0x450(%rbp),%rax
    2b8a:	80 b8 34 03 00 00 3f 	cmpb   $0x3f,0x334(%rax)
    2b91:	77 6e                	ja     2c01 <_dl_debug_state@@GLIBC_PRIVATE+0x6f1>
    2b93:	48 89 e2             	mov    %rsp,%rdx
    2b96:	48 39 d4             	cmp    %rdx,%rsp
    2b99:	74 15                	je     2bb0 <_dl_debug_state@@GLIBC_PRIVATE+0x6a0>
    2b9b:	48 81 ec 00 10 00 00 	sub    $0x1000,%rsp
    2ba2:	48 83 8c 24 f8 0f 00 	orq    $0x0,0xff8(%rsp)
    2ba9:	00 00 
    2bab:	48 39 d4             	cmp    %rdx,%rsp
    2bae:	75 eb                	jne    2b9b <_dl_debug_state@@GLIBC_PRIVATE+0x68b>
    2bb0:	48 83 ec 20          	sub    $0x20,%rsp
    2bb4:	48 83 4c 24 18 00    	orq    $0x0,0x18(%rsp)
    2bba:	48 8b b5 40 fb ff ff 	mov    -0x4c0(%rbp),%rsi
    2bc1:	83 85 38 fb ff ff 01 	addl   $0x1,-0x4c8(%rbp)
    2bc8:	48 8d 54 24 0f       	lea    0xf(%rsp),%rdx
    2bcd:	48 83 e2 f0          	and    $0xfffffffffffffff0,%rdx
    2bd1:	48 89 42 08          	mov    %rax,0x8(%rdx)
    2bd5:	c7 02 00 00 00 00    	movl   $0x0,(%rdx)
    2bdb:	48 c7 42 10 00 00 00 	movq   $0x0,0x10(%rdx)
    2be2:	00 
    2be3:	48 89 56 10          	mov    %rdx,0x10(%rsi)
    2be7:	0f b6 88 34 03 00 00 	movzbl 0x334(%rax),%ecx
    2bee:	48 89 95 40 fb ff ff 	mov    %rdx,-0x4c0(%rbp)
    2bf5:	83 e1 3f             	and    $0x3f,%ecx
    2bf8:	83 c9 40             	or     $0x40,%ecx
    2bfb:	88 88 34 03 00 00    	mov    %cl,0x334(%rax)
    2c01:	48 8b b5 60 fb ff ff 	mov    -0x4a0(%rbp),%rsi
    2c08:	48 85 f6             	test   %rsi,%rsi
    2c0b:	74 0b                	je     2c18 <_dl_debug_state@@GLIBC_PRIVATE+0x708>
    2c0d:	44 89 ea             	mov    %r13d,%edx
    2c10:	41 83 c5 01          	add    $0x1,%r13d
    2c14:	48 89 04 d6          	mov    %rax,(%rsi,%rdx,8)
    2c18:	48 8b 43 10          	mov    0x10(%rbx),%rax
    2c1c:	48 83 c3 10          	add    $0x10,%rbx
    2c20:	48 85 c0             	test   %rax,%rax
    2c23:	0f 85 27 fe ff ff    	jne    2a50 <_dl_debug_state@@GLIBC_PRIVATE+0x540>
    2c29:	4c 8b 85 60 fb ff ff 	mov    -0x4a0(%rbp),%r8
    2c30:	48 8b 8d 00 fb ff ff 	mov    -0x500(%rbp),%rcx
    2c37:	e9 b5 fc ff ff       	jmp    28f1 <_dl_debug_state@@GLIBC_PRIVATE+0x3e1>
    2c3c:	0f 1f 40 00          	nopl   0x0(%rax)
    2c40:	4c 89 e0             	mov    %r12,%rax
    2c43:	e9 0c ff ff ff       	jmp    2b54 <_dl_debug_state@@GLIBC_PRIVATE+0x644>
    2c48:	0f 1f 84 00 00 00 00 	nopl   0x0(%rax,%rax,1)
    2c4f:	00 
    2c50:	31 c0                	xor    %eax,%eax
    2c52:	e9 7b fe ff ff       	jmp    2ad2 <_dl_debug_state@@GLIBC_PRIVATE+0x5c2>
    2c57:	66 0f 1f 84 00 00 00 	nopw   0x0(%rax,%rax,1)
    2c5e:	00 00 
    2c60:	48 83 e0 fd          	and    $0xfffffffffffffffd,%rax
    2c64:	48 3d fd ff ff 7f    	cmp    $0x7ffffffd,%rax
    2c6a:	75 ac                	jne    2c18 <_dl_debug_state@@GLIBC_PRIVATE+0x708>
    2c6c:	4c 8b a5 68 fb ff ff 	mov    -0x498(%rbp),%r12
    2c73:	4c 03 63 08          	add    0x8(%rbx),%r12
    2c77:	4c 89 e7             	mov    %r12,%rdi
    2c7a:	e8 21 33 00 00       	call   5fa0 <__nptl_change_stack_perm@@GLIBC_PRIVATE+0x20f0>
    2c7f:	49 89 c7             	mov    %rax,%r15
    2c82:	48 85 c0             	test   %rax,%rax
    2c85:	0f 84 5b 06 00 00    	je     32e6 <_dl_debug_state@@GLIBC_PRIVATE+0xdd6>
    2c8b:	8b 3d d7 fd 02 00    	mov    0x2fdd7(%rip),%edi        # 32a68 <__libc_enable_secure@@GLIBC_PRIVATE>
    2c91:	85 ff                	test   %edi,%edi
    2c93:	0f 85 45 0a 00 00    	jne    36de <_dl_debug_state@@GLIBC_PRIVATE+0x11ce>
    2c99:	4c 89 e7             	mov    %r12,%rdi
    2c9c:	e8 3f 15 02 00       	call   241e0 <_dl_audit_symbind_alt@@GLIBC_PRIVATE+0xc690>
    2ca1:	49 8b be 68 03 00 00 	mov    0x368(%r14),%rdi
    2ca8:	48 89 c2             	mov    %rax,%rdx
    2cab:	48 89 c1             	mov    %rax,%rcx
    2cae:	48 85 ff             	test   %rdi,%rdi
    2cb1:	0f 84 ec 07 00 00    	je     34a3 <_dl_debug_state@@GLIBC_PRIVATE+0xf93>
    2cb7:	48 83 ff ff          	cmp    $0xffffffffffffffff,%rdi
    2cbb:	0f 84 7a 08 00 00    	je     353b <_dl_debug_state@@GLIBC_PRIVATE+0x102b>
    2cc1:	48 89 85 48 fb ff ff 	mov    %rax,-0x4b8(%rbp)
    2cc8:	48 89 85 50 fb ff ff 	mov    %rax,-0x4b0(%rbp)
    2ccf:	e8 0c 15 02 00       	call   241e0 <_dl_audit_symbind_alt@@GLIBC_PRIVATE+0xc690>
    2cd4:	48 8b 95 48 fb ff ff 	mov    -0x4b8(%rbp),%rdx
    2cdb:	48 8b 8d 50 fb ff ff 	mov    -0x4b0(%rbp),%rcx
    2ce2:	48 8b 35 e7 fd 02 00 	mov    0x2fde7(%rip),%rsi        # 32ad0 <_rtld_global_ro@@GLIBC_PRIVATE+0x10>
    2ce9:	48 39 f0             	cmp    %rsi,%rax
    2cec:	48 0f 42 c6          	cmovb  %rsi,%rax
    2cf0:	48 83 f8 04          	cmp    $0x4,%rax
    2cf4:	76 0c                	jbe    2d02 <_dl_debug_state@@GLIBC_PRIVATE+0x7f2>
    2cf6:	48 83 e8 04          	sub    $0x4,%rax
    2cfa:	49 0f af c7          	imul   %r15,%rax
    2cfe:	48 8d 0c 02          	lea    (%rdx,%rax,1),%rcx
    2d02:	48 8d 41 17          	lea    0x17(%rcx),%rax
    2d06:	48 89 e1             	mov    %rsp,%rcx
    2d09:	48 89 c2             	mov    %rax,%rdx
    2d0c:	48 25 00 f0 ff ff    	and    $0xfffffffffffff000,%rax
    2d12:	48 29 c1             	sub    %rax,%rcx
    2d15:	48 83 e2 f0          	and    $0xfffffffffffffff0,%rdx
    2d19:	48 39 cc             	cmp    %rcx,%rsp
    2d1c:	74 15                	je     2d33 <_dl_debug_state@@GLIBC_PRIVATE+0x823>
    2d1e:	48 81 ec 00 10 00 00 	sub    $0x1000,%rsp
    2d25:	48 83 8c 24 f8 0f 00 	orq    $0x0,0xff8(%rsp)
    2d2c:	00 00 
    2d2e:	48 39 cc             	cmp    %rcx,%rsp
    2d31:	75 eb                	jne    2d1e <_dl_debug_state@@GLIBC_PRIVATE+0x80e>
    2d33:	81 e2 ff 0f 00 00    	and    $0xfff,%edx
    2d39:	48 29 d4             	sub    %rdx,%rsp
    2d3c:	48 85 d2             	test   %rdx,%rdx
    2d3f:	74 06                	je     2d47 <_dl_debug_state@@GLIBC_PRIVATE+0x837>
    2d41:	48 83 4c 14 f8 00    	orq    $0x0,-0x8(%rsp,%rdx,1)
    2d47:	48 8d 54 24 0f       	lea    0xf(%rsp),%rdx
    2d4c:	4c 89 e6             	mov    %r12,%rsi
    2d4f:	4c 89 f7             	mov    %r14,%rdi
    2d52:	48 83 e2 f0          	and    $0xfffffffffffffff0,%rdx
    2d56:	e8 f5 32 00 00       	call   6050 <__nptl_change_stack_perm@@GLIBC_PRIVATE+0x21a0>
    2d5b:	80 38 00             	cmpb   $0x0,(%rax)
    2d5e:	0f 85 7f 05 00 00    	jne    32e3 <_dl_debug_state@@GLIBC_PRIVATE+0xdd3>
    2d64:	48 81 3b fd ff ff 7f 	cmpq   $0x7ffffffd,(%rbx)
    2d6b:	0f 84 3b 09 00 00    	je     36ac <_dl_debug_state@@GLIBC_PRIVATE+0x119c>
    2d71:	0f 1f 80 00 00 00 00 	nopl   0x0(%rax)
    2d78:	f6 05 41 fd 02 00 01 	testb  $0x1,0x2fd41(%rip)        # 32ac0 <_rtld_global_ro@@GLIBC_PRIVATE>
    2d7f:	0f 84 93 fe ff ff    	je     2c18 <_dl_debug_state@@GLIBC_PRIVATE+0x708>
    2d85:	4c 89 e6             	mov    %r12,%rsi
    2d88:	48 8d 3d 09 77 02 00 	lea    0x27709(%rip),%rdi        # 2a498 <__rtld_version_placeholder@GLIBC_2.34+0x3c28>
    2d8f:	31 c0                	xor    %eax,%eax
    2d91:	e8 3a a4 00 00       	call   d1d0 <_dl_find_dso_for_object@@GLIBC_PRIVATE+0x1760>
    2d96:	e9 7d fe ff ff       	jmp    2c18 <_dl_debug_state@@GLIBC_PRIVATE+0x708>
    2d9b:	0f 1f 44 00 00       	nopl   0x0(%rax,%rax,1)
    2da0:	49 8b 46 08          	mov    0x8(%r14),%rax
    2da4:	80 38 00             	cmpb   $0x0,(%rax)
    2da7:	74 10                	je     2db9 <_dl_debug_state@@GLIBC_PRIVATE+0x8a9>
    2da9:	48 8d 05 00 0d 03 00 	lea    0x30d00(%rip),%rax        # 33ab0 <_rtld_global@@GLIBC_PRIVATE+0xab0>
    2db0:	49 39 c6             	cmp    %rax,%r14
    2db3:	0f 85 06 09 00 00    	jne    36bf <_dl_debug_state@@GLIBC_PRIVATE+0x11af>
    2db9:	48 89 95 48 fb ff ff 	mov    %rdx,-0x4b8(%rbp)
    2dc0:	48 89 8d 50 fb ff ff 	mov    %rcx,-0x4b0(%rbp)
    2dc7:	e8 24 9c 00 00       	call   c9f0 <_dl_find_dso_for_object@@GLIBC_PRIVATE+0xf80>
    2dcc:	48 8b 8d 50 fb ff ff 	mov    -0x4b0(%rbp),%rcx
    2dd3:	48 8b 95 48 fb ff ff 	mov    -0x4b8(%rbp),%rdx
    2dda:	49 89 86 68 03 00 00 	mov    %rax,0x368(%r14)
    2de1:	48 89 c7             	mov    %rax,%rdi
    2de4:	48 8d 40 ff          	lea    -0x1(%rax),%rax
    2de8:	48 83 f8 fd          	cmp    $0xfffffffffffffffd,%rax
    2dec:	0f 87 5e fe ff ff    	ja     2c50 <_dl_debug_state@@GLIBC_PRIVATE+0x740>
    2df2:	48 89 95 48 fb ff ff 	mov    %rdx,-0x4b8(%rbp)
    2df9:	48 89 8d 50 fb ff ff 	mov    %rcx,-0x4b0(%rbp)
    2e00:	e8 db 13 02 00       	call   241e0 <_dl_audit_symbind_alt@@GLIBC_PRIVATE+0xc690>
    2e05:	48 8b 8d 50 fb ff ff 	mov    -0x4b0(%rbp),%rcx
    2e0c:	48 8b 95 48 fb ff ff 	mov    -0x4b8(%rbp),%rdx
    2e13:	e9 ba fc ff ff       	jmp    2ad2 <_dl_debug_state@@GLIBC_PRIVATE+0x5c2>
    2e18:	0f 1f 84 00 00 00 00 	nopl   0x0(%rax,%rax,1)
    2e1f:	00 
    2e20:	4c 8b 9d 10 fb ff ff 	mov    -0x4f0(%rbp),%r11
    2e27:	44 8b bd 0c fb ff ff 	mov    -0x4f4(%rbp),%r15d
    2e2e:	41 89 c4             	mov    %eax,%r12d
    2e31:	4c 8b 95 28 fb ff ff 	mov    -0x4d8(%rbp),%r10
    2e38:	44 8b ad 34 fb ff ff 	mov    -0x4cc(%rbp),%r13d
    2e3f:	48 8b 9d 18 fb ff ff 	mov    -0x4e8(%rbp),%rbx
    2e46:	85 c0                	test   %eax,%eax
    2e48:	75 06                	jne    2e50 <_dl_debug_state@@GLIBC_PRIVATE+0x940>
    2e4a:	41 bc ff ff ff ff    	mov    $0xffffffff,%r12d
    2e50:	48 8b bd c0 fb ff ff 	mov    -0x440(%rbp),%rdi
    2e57:	48 39 df             	cmp    %rbx,%rdi
    2e5a:	74 22                	je     2e7e <_dl_debug_state@@GLIBC_PRIVATE+0x96e>
    2e5c:	4c 89 95 60 fb ff ff 	mov    %r10,-0x4a0(%rbp)
    2e63:	4c 89 9d 68 fb ff ff 	mov    %r11,-0x498(%rbp)
    2e6a:	ff 15 c8 fb 02 00    	call   *0x2fbc8(%rip)        # 32a38 <__rseq_size@@GLIBC_2.35+0x1268>
    2e70:	4c 8b 95 60 fb ff ff 	mov    -0x4a0(%rbp),%r10
    2e77:	4c 8b 9d 68 fb ff ff 	mov    -0x498(%rbp),%r11
    2e7e:	8b 05 0c 14 03 00    	mov    0x3140c(%rip),%eax        # 34290 <__nptl_initial_report_events@@GLIBC_PRIVATE+0xc0>
    2e84:	85 c0                	test   %eax,%eax
    2e86:	75 0c                	jne    2e94 <_dl_debug_state@@GLIBC_PRIVATE+0x984>
    2e88:	45 85 ff             	test   %r15d,%r15d
    2e8b:	74 07                	je     2e94 <_dl_debug_state@@GLIBC_PRIVATE+0x984>
    2e8d:	44 89 3d fc 13 03 00 	mov    %r15d,0x313fc(%rip)        # 34290 <__nptl_initial_report_events@@GLIBC_PRIVATE+0xc0>
    2e94:	49 8b 82 e8 03 00 00 	mov    0x3e8(%r10),%rax
    2e9b:	48 89 85 60 fb ff ff 	mov    %rax,-0x4a0(%rbp)
    2ea2:	48 85 c0             	test   %rax,%rax
    2ea5:	74 1e                	je     2ec5 <_dl_debug_state@@GLIBC_PRIVATE+0x9b5>
    2ea7:	41 0f b6 82 34 03 00 	movzbl 0x334(%r10),%eax
    2eae:	00 
    2eaf:	83 e0 03             	and    $0x3,%eax
    2eb2:	3c 02                	cmp    $0x2,%al
    2eb4:	0f 84 ae 05 00 00    	je     3468 <_dl_debug_state@@GLIBC_PRIVATE+0xf58>
    2eba:	48 c7 85 60 fb ff ff 	movq   $0x0,-0x4a0(%rbp)
    2ec1:	00 00 00 00 
    2ec5:	8b 85 38 fb ff ff    	mov    -0x4c8(%rbp),%eax
    2ecb:	4c 89 95 50 fb ff ff 	mov    %r10,-0x4b0(%rbp)
    2ed2:	4c 89 9d 68 fb ff ff 	mov    %r11,-0x498(%rbp)
    2ed9:	8d 7c 00 01          	lea    0x1(%rax,%rax,1),%edi
    2edd:	48 c1 e7 03          	shl    $0x3,%rdi
    2ee1:	ff 15 49 fb 02 00    	call   *0x2fb49(%rip)        # 32a30 <__rseq_size@@GLIBC_2.35+0x1260>
    2ee7:	4c 8b 9d 68 fb ff ff 	mov    -0x498(%rbp),%r11
    2eee:	4c 8b 95 50 fb ff ff 	mov    -0x4b0(%rbp),%r10
    2ef5:	48 85 c0             	test   %rax,%rax
    2ef8:	49 89 c6             	mov    %rax,%r14
    2efb:	0f 84 f0 07 00 00    	je     36f1 <_dl_debug_state@@GLIBC_PRIVATE+0x11e1>
    2f01:	8b b5 38 fb ff ff    	mov    -0x4c8(%rbp),%esi
    2f07:	31 db                	xor    %ebx,%ebx
    2f09:	41 bf ff ff ff ff    	mov    $0xffffffff,%r15d
    2f0f:	8d 46 01             	lea    0x1(%rsi),%eax
    2f12:	41 89 b2 e0 02 00 00 	mov    %esi,0x2e0(%r10)
    2f19:	49 8d 0c c6          	lea    (%r14,%rax,8),%rcx
    2f1d:	49 89 8a d8 02 00 00 	mov    %rcx,0x2d8(%r10)
    2f24:	0f 1f 40 00          	nopl   0x0(%rax)
    2f28:	49 8b 43 08          	mov    0x8(%r11),%rax
    2f2c:	45 85 ed             	test   %r13d,%r13d
    2f2f:	0f 85 2b 03 00 00    	jne    3260 <_dl_debug_state@@GLIBC_PRIVATE+0xd50>
    2f35:	89 da                	mov    %ebx,%edx
    2f37:	49 39 c2             	cmp    %rax,%r10
    2f3a:	48 89 04 d1          	mov    %rax,(%rcx,%rdx,8)
    2f3e:	44 0f 44 fb          	cmove  %ebx,%r15d
    2f42:	83 c3 01             	add    $0x1,%ebx
    2f45:	80 a0 34 03 00 00 3f 	andb   $0x3f,0x334(%rax)
    2f4c:	4d 8b 5b 10          	mov    0x10(%r11),%r11
    2f50:	4d 85 db             	test   %r11,%r11
    2f53:	75 d3                	jne    2f28 <_dl_debug_state@@GLIBC_PRIVATE+0xa18>
    2f55:	49 8b b2 f0 03 00 00 	mov    0x3f0(%r10),%rsi
    2f5c:	48 85 f6             	test   %rsi,%rsi
    2f5f:	0f 84 ce 01 00 00    	je     3133 <_dl_debug_state@@GLIBC_PRIVATE+0xc23>
    2f65:	44 8b 06             	mov    (%rsi),%r8d
    2f68:	85 db                	test   %ebx,%ebx
    2f6a:	0f 84 40 06 00 00    	je     35b0 <_dl_debug_state@@GLIBC_PRIVATE+0x10a0>
    2f70:	48 89 c8             	mov    %rcx,%rax
    2f73:	89 d9                	mov    %ebx,%ecx
    2f75:	48 8d 3c c8          	lea    (%rax,%rcx,8),%rdi
    2f79:	0f 1f 80 00 00 00 00 	nopl   0x0(%rax)
    2f80:	4c 8b 08             	mov    (%rax),%r9
    2f83:	48 83 c0 08          	add    $0x8,%rax
    2f87:	41 0f b6 91 34 03 00 	movzbl 0x334(%r9),%edx
    2f8e:	00 
    2f8f:	83 e2 3f             	and    $0x3f,%edx
    2f92:	83 ca 40             	or     $0x40,%edx
    2f95:	41 88 91 34 03 00 00 	mov    %dl,0x334(%r9)
    2f9c:	48 39 f8             	cmp    %rdi,%rax
    2f9f:	75 df                	jne    2f80 <_dl_debug_state@@GLIBC_PRIVATE+0xa70>
    2fa1:	41 80 a2 34 03 00 00 	andb   $0x3f,0x334(%r10)
    2fa8:	3f 
    2fa9:	48 83 c6 08          	add    $0x8,%rsi
    2fad:	45 85 c0             	test   %r8d,%r8d
    2fb0:	0f 84 55 01 00 00    	je     310b <_dl_debug_state@@GLIBC_PRIVATE+0xbfb>
    2fb6:	48 8d 46 10          	lea    0x10(%rsi),%rax
    2fba:	44 89 bd 40 fb ff ff 	mov    %r15d,-0x4c0(%rbp)
    2fc1:	45 31 ed             	xor    %r13d,%r13d
    2fc4:	4d 89 df             	mov    %r11,%r15
    2fc7:	4c 89 b5 38 fb ff ff 	mov    %r14,-0x4c8(%rbp)
    2fce:	4d 89 d6             	mov    %r10,%r14
    2fd1:	89 9d 34 fb ff ff    	mov    %ebx,-0x4cc(%rbp)
    2fd7:	48 89 f3             	mov    %rsi,%rbx
    2fda:	48 89 85 50 fb ff ff 	mov    %rax,-0x4b0(%rbp)
    2fe1:	44 89 a5 48 fb ff ff 	mov    %r12d,-0x4b8(%rbp)
    2fe8:	eb 1a                	jmp    3004 <_dl_debug_state@@GLIBC_PRIVATE+0xaf4>
    2fea:	66 0f 1f 44 00 00    	nopw   0x0(%rax,%rax,1)
    2ff0:	49 8b 8e f0 03 00 00 	mov    0x3f0(%r14),%rcx
    2ff7:	41 83 c5 01          	add    $0x1,%r13d
    2ffb:	44 3b 29             	cmp    (%rcx),%r13d
    2ffe:	0f 83 dc 00 00 00    	jae    30e0 <_dl_debug_state@@GLIBC_PRIVATE+0xbd0>
    3004:	45 89 ec             	mov    %r13d,%r12d
    3007:	4a 8b 04 e3          	mov    (%rbx,%r12,8),%rax
    300b:	4a 8d 14 e5 00 00 00 	lea    0x0(,%r12,8),%rdx
    3012:	00 
    3013:	80 b8 34 03 00 00 3f 	cmpb   $0x3f,0x334(%rax)
    301a:	76 d4                	jbe    2ff0 <_dl_debug_state@@GLIBC_PRIVATE+0xae0>
    301c:	41 8b 86 f8 03 00 00 	mov    0x3f8(%r14),%eax
    3023:	48 89 95 68 fb ff ff 	mov    %rdx,-0x498(%rbp)
    302a:	48 8d 3c c5 08 00 00 	lea    0x8(,%rax,8),%rdi
    3031:	00 
    3032:	ff 15 f8 f9 02 00    	call   *0x2f9f8(%rip)        # 32a30 <__rseq_size@@GLIBC_2.35+0x1260>
    3038:	48 8b 95 68 fb ff ff 	mov    -0x498(%rbp),%rdx
    303f:	48 85 c0             	test   %rax,%rax
    3042:	49 89 c7             	mov    %rax,%r15
    3045:	74 a9                	je     2ff0 <_dl_debug_state@@GLIBC_PRIVATE+0xae0>
    3047:	45 8d 45 01          	lea    0x1(%r13),%r8d
    304b:	48 8d 78 08          	lea    0x8(%rax),%rdi
    304f:	48 89 de             	mov    %rbx,%rsi
    3052:	44 89 85 68 fb ff ff 	mov    %r8d,-0x498(%rbp)
    3059:	67 e8 a1 ef 01 00    	addr32 call 22000 <_dl_audit_symbind_alt@@GLIBC_PRIVATE+0xa4b0>
    305f:	49 8b 8e f0 03 00 00 	mov    0x3f0(%r14),%rcx
    3066:	44 8b 85 68 fb ff ff 	mov    -0x498(%rbp),%r8d
    306d:	44 8b 19             	mov    (%rcx),%r11d
    3070:	45 39 d8             	cmp    %r11d,%r8d
    3073:	0f 83 e2 04 00 00    	jae    355b <_dl_debug_state@@GLIBC_PRIVATE+0x104b>
    3079:	41 8d 53 fe          	lea    -0x2(%r11),%edx
    307d:	48 8b b5 50 fb ff ff 	mov    -0x4b0(%rbp),%rsi
    3084:	44 89 c0             	mov    %r8d,%eax
    3087:	44 89 ef             	mov    %r13d,%edi
    308a:	44 29 ea             	sub    %r13d,%edx
    308d:	48 8d 04 c3          	lea    (%rbx,%rax,8),%rax
    3091:	4c 01 e2             	add    %r12,%rdx
    3094:	4c 8d 0c d6          	lea    (%rsi,%rdx,8),%r9
    3098:	0f 1f 84 00 00 00 00 	nopl   0x0(%rax,%rax,1)
    309f:	00 
    30a0:	48 8b 10             	mov    (%rax),%rdx
    30a3:	80 ba 34 03 00 00 3f 	cmpb   $0x3f,0x334(%rdx)
    30aa:	77 0a                	ja     30b6 <_dl_debug_state@@GLIBC_PRIVATE+0xba6>
    30ac:	89 fe                	mov    %edi,%esi
    30ae:	83 c7 01             	add    $0x1,%edi
    30b1:	49 89 54 f7 08       	mov    %rdx,0x8(%r15,%rsi,8)
    30b6:	48 83 c0 08          	add    $0x8,%rax
    30ba:	49 39 c1             	cmp    %rax,%r9
    30bd:	75 e1                	jne    30a0 <_dl_debug_state@@GLIBC_PRIVATE+0xb90>
    30bf:	43 8d 44 03 ff       	lea    -0x1(%r11,%r8,1),%eax
    30c4:	44 29 e8             	sub    %r13d,%eax
    30c7:	41 89 c5             	mov    %eax,%r13d
    30ca:	41 89 3f             	mov    %edi,(%r15)
    30cd:	41 83 c5 01          	add    $0x1,%r13d
    30d1:	44 3b 29             	cmp    (%rcx),%r13d
    30d4:	0f 82 2a ff ff ff    	jb     3004 <_dl_debug_state@@GLIBC_PRIVATE+0xaf4>
    30da:	66 0f 1f 44 00 00    	nopw   0x0(%rax,%rax,1)
    30e0:	8b 9d 34 fb ff ff    	mov    -0x4cc(%rbp),%ebx
    30e6:	4d 89 fb             	mov    %r15,%r11
    30e9:	4d 89 f2             	mov    %r14,%r10
    30ec:	44 8b a5 48 fb ff ff 	mov    -0x4b8(%rbp),%r12d
    30f3:	44 8b bd 40 fb ff ff 	mov    -0x4c0(%rbp),%r15d
    30fa:	4c 8b b5 38 fb ff ff 	mov    -0x4c8(%rbp),%r14
    3101:	85 db                	test   %ebx,%ebx
    3103:	0f 84 bc 04 00 00    	je     35c5 <_dl_debug_state@@GLIBC_PRIVATE+0x10b5>
    3109:	89 d9                	mov    %ebx,%ecx
    310b:	49 8b 82 d8 02 00 00 	mov    0x2d8(%r10),%rax
    3112:	48 8d 0c c8          	lea    (%rax,%rcx,8),%rcx
    3116:	66 2e 0f 1f 84 00 00 	cs nopw 0x0(%rax,%rax,1)
    311d:	00 00 00 
    3120:	48 8b 10             	mov    (%rax),%rdx
    3123:	48 83 c0 08          	add    $0x8,%rax
    3127:	80 a2 34 03 00 00 3f 	andb   $0x3f,0x334(%rdx)
    312e:	48 39 c1             	cmp    %rax,%rcx
    3131:	75 ed                	jne    3120 <_dl_debug_state@@GLIBC_PRIVATE+0xc10>
    3133:	41 39 df             	cmp    %ebx,%r15d
    3136:	0f 83 89 04 00 00    	jae    35c5 <_dl_debug_state@@GLIBC_PRIVATE+0x10b5>
    313c:	41 89 dd             	mov    %ebx,%r13d
    313f:	49 8b b2 d8 02 00 00 	mov    0x2d8(%r10),%rsi
    3146:	4a 8d 14 ed 00 00 00 	lea    0x0(,%r13,8),%rdx
    314d:	00 
    314e:	45 85 ff             	test   %r15d,%r15d
    3151:	0f 84 e1 02 00 00    	je     3438 <_dl_debug_state@@GLIBC_PRIVATE+0xf28>
    3157:	44 89 f8             	mov    %r15d,%eax
    315a:	48 8d 0c c5 00 00 00 	lea    0x0(,%rax,8),%rcx
    3161:	00 
    3162:	48 8b 04 c6          	mov    (%rsi,%rax,8),%rax
    3166:	49 89 06             	mov    %rax,(%r14)
    3169:	31 c0                	xor    %eax,%eax
    316b:	0f 1f 44 00 00       	nopl   0x0(%rax,%rax,1)
    3170:	48 8b 14 06          	mov    (%rsi,%rax,1),%rdx
    3174:	49 89 54 06 08       	mov    %rdx,0x8(%r14,%rax,1)
    3179:	48 83 c0 08          	add    $0x8,%rax
    317d:	48 39 c8             	cmp    %rcx,%rax
    3180:	75 ee                	jne    3170 <_dl_debug_state@@GLIBC_PRIVATE+0xc60>
    3182:	41 8d 47 01          	lea    0x1(%r15),%eax
    3186:	39 d8                	cmp    %ebx,%eax
    3188:	73 2f                	jae    31b9 <_dl_debug_state@@GLIBC_PRIVATE+0xca9>
    318a:	8d 4b fe             	lea    -0x2(%rbx),%ecx
    318d:	89 c2                	mov    %eax,%edx
    318f:	44 29 f9             	sub    %r15d,%ecx
    3192:	48 8d 04 d5 00 00 00 	lea    0x0(,%rdx,8),%rax
    3199:	00 
    319a:	48 8d 4c 0a 01       	lea    0x1(%rdx,%rcx,1),%rcx
    319f:	48 c1 e1 03          	shl    $0x3,%rcx
    31a3:	0f 1f 44 00 00       	nopl   0x0(%rax,%rax,1)
    31a8:	48 8b 14 06          	mov    (%rsi,%rax,1),%rdx
    31ac:	49 89 14 06          	mov    %rdx,(%r14,%rax,1)
    31b0:	48 83 c0 08          	add    $0x8,%rax
    31b4:	48 39 c8             	cmp    %rcx,%rax
    31b7:	75 ef                	jne    31a8 <_dl_debug_state@@GLIBC_PRIVATE+0xc98>
    31b9:	49 8b 16             	mov    (%r14),%rdx
    31bc:	48 8d 0d 3d fe 02 00 	lea    0x2fe3d(%rip),%rcx        # 33000 <_rtld_global@@GLIBC_PRIVATE>
    31c3:	89 de                	mov    %ebx,%esi
    31c5:	4c 89 f7             	mov    %r14,%rdi
    31c8:	4c 89 95 50 fb ff ff 	mov    %r10,-0x4b0(%rbp)
    31cf:	48 8b 42 30          	mov    0x30(%rdx),%rax
    31d3:	4c 89 9d 68 fb ff ff 	mov    %r11,-0x498(%rbp)
    31da:	48 8d 04 80          	lea    (%rax,%rax,4),%rax
    31de:	48 c1 e0 05          	shl    $0x5,%rax
    31e2:	48 39 54 01 20       	cmp    %rdx,0x20(%rcx,%rax,1)
    31e7:	0f 95 c2             	setne  %dl
    31ea:	31 c9                	xor    %ecx,%ecx
    31ec:	0f b6 d2             	movzbl %dl,%edx
    31ef:	e8 bc dc 00 00       	call   10eb0 <_dl_mcount@@GLIBC_2.2.5+0x3110>
    31f4:	4b c7 04 ee 00 00 00 	movq   $0x0,(%r14,%r13,8)
    31fb:	00 
    31fc:	4c 8b 95 50 fb ff ff 	mov    -0x4b0(%rbp),%r10
    3203:	41 80 8a 36 03 00 00 	orb    $0x10,0x336(%r10)
    320a:	10 
    320b:	4c 8b 9d 68 fb ff ff 	mov    -0x498(%rbp),%r11
    3212:	4d 89 b2 e8 03 00 00 	mov    %r14,0x3e8(%r10)
    3219:	4d 85 db             	test   %r11,%r11
    321c:	74 13                	je     3231 <_dl_debug_state@@GLIBC_PRIVATE+0xd21>
    321e:	49 8b ba f0 03 00 00 	mov    0x3f0(%r10),%rdi
    3225:	4d 89 9a f0 03 00 00 	mov    %r11,0x3f0(%r10)
    322c:	e8 df d9 00 00       	call   10c10 <_dl_mcount@@GLIBC_2.2.5+0x2e70>
    3231:	48 8b 85 60 fb ff ff 	mov    -0x4a0(%rbp),%rax
    3238:	48 85 c0             	test   %rax,%rax
    323b:	74 08                	je     3245 <_dl_debug_state@@GLIBC_PRIVATE+0xd35>
    323d:	48 89 c7             	mov    %rax,%rdi
    3240:	e8 cb d9 00 00       	call   10c10 <_dl_mcount@@GLIBC_2.2.5+0x2e70>
    3245:	45 85 e4             	test   %r12d,%r12d
    3248:	0f 85 ff 04 00 00    	jne    374d <_dl_debug_state@@GLIBC_PRIVATE+0x123d>
    324e:	48 8d 65 d8          	lea    -0x28(%rbp),%rsp
    3252:	5b                   	pop    %rbx
    3253:	41 5c                	pop    %r12
    3255:	41 5d                	pop    %r13
    3257:	41 5e                	pop    %r14
    3259:	41 5f                	pop    %r15
    325b:	5d                   	pop    %rbp
    325c:	c3                   	ret
    325d:	0f 1f 00             	nopl   (%rax)
    3260:	f6 80 35 03 00 00 40 	testb  $0x40,0x335(%rax)
    3267:	0f 84 c8 fc ff ff    	je     2f35 <_dl_debug_state@@GLIBC_PRIVATE+0xa25>
    326d:	41 83 aa e0 02 00 00 	subl   $0x1,0x2e0(%r10)
    3274:	01 
    3275:	e9 cb fc ff ff       	jmp    2f45 <_dl_debug_state@@GLIBC_PRIVATE+0xa35>
    327a:	66 0f 1f 44 00 00    	nopw   0x0(%rax,%rax,1)
    3280:	49 83 be e8 03 00 00 	cmpq   $0x0,0x3e8(%r14)
    3287:	00 
    3288:	0f 85 39 f6 ff ff    	jne    28c7 <_dl_debug_state@@GLIBC_PRIVATE+0x3b7>
    328e:	4c 39 b5 28 fb ff ff 	cmp    %r14,-0x4d8(%rbp)
    3295:	0f 84 2c f6 ff ff    	je     28c7 <_dl_debug_state@@GLIBC_PRIVATE+0x3b7>
    329b:	41 0f b7 86 d2 02 00 	movzwl 0x2d2(%r14),%eax
    32a2:	00 
    32a3:	66 85 c0             	test   %ax,%ax
    32a6:	0f 84 1b f6 ff ff    	je     28c7 <_dl_debug_state@@GLIBC_PRIVATE+0x3b7>
    32ac:	48 89 8d 68 fb ff ff 	mov    %rcx,-0x498(%rbp)
    32b3:	0f b7 f0             	movzwl %ax,%esi
    32b6:	ba 08 00 00 00       	mov    $0x8,%edx
    32bb:	48 8d bd c0 fb ff ff 	lea    -0x440(%rbp),%rdi
    32c2:	67 e8 28 e1 01 00    	addr32 call 213f0 <_dl_audit_symbind_alt@@GLIBC_PRIVATE+0x98a0>
    32c8:	48 8b 8d 68 fb ff ff 	mov    -0x498(%rbp),%rcx
    32cf:	84 c0                	test   %al,%al
    32d1:	0f 84 b7 03 00 00    	je     368e <_dl_debug_state@@GLIBC_PRIVATE+0x117e>
    32d7:	4c 8b 85 c0 fb ff ff 	mov    -0x440(%rbp),%r8
    32de:	e9 e4 f5 ff ff       	jmp    28c7 <_dl_debug_state@@GLIBC_PRIVATE+0x3b7>
    32e3:	49 89 c4             	mov    %rax,%r12
    32e6:	4c 89 a5 a8 fb ff ff 	mov    %r12,-0x458(%rbp)
    32ed:	f6 05 cc f7 02 00 01 	testb  $0x1,0x2f7cc(%rip)        # 32ac0 <_rtld_global_ro@@GLIBC_PRIVATE>
    32f4:	0f 85 28 03 00 00    	jne    3622 <_dl_debug_state@@GLIBC_PRIVATE+0x1112>
    32fa:	4c 8d a5 70 fb ff ff 	lea    -0x490(%rbp),%r12
    3301:	48 8d 95 90 fb ff ff 	lea    -0x470(%rbp),%rdx
    3308:	48 8d 35 d1 f3 ff ff 	lea    -0xc2f(%rip),%rsi        # 26e0 <_dl_debug_state@@GLIBC_PRIVATE+0x1d0>
    330f:	4c 89 e7             	mov    %r12,%rdi
    3312:	e8 49 e1 ff ff       	call   1460 <_dl_catch_exception@@GLIBC_PRIVATE>
    3317:	48 83 bd 78 fb ff ff 	cmpq   $0x0,-0x488(%rbp)
    331e:	00 
    331f:	48 89 e2             	mov    %rsp,%rdx
    3322:	0f 85 31 03 00 00    	jne    3659 <_dl_debug_state@@GLIBC_PRIVATE+0x1149>
    3328:	48 39 d4             	cmp    %rdx,%rsp
    332b:	74 15                	je     3342 <_dl_debug_state@@GLIBC_PRIVATE+0xe32>
    332d:	48 81 ec 00 10 00 00 	sub    $0x1000,%rsp
    3334:	48 83 8c 24 f8 0f 00 	orq    $0x0,0xff8(%rsp)
    333b:	00 00 
    333d:	48 39 d4             	cmp    %rdx,%rsp
    3340:	75 eb                	jne    332d <_dl_debug_state@@GLIBC_PRIVATE+0xe1d>
    3342:	48 83 ec 20          	sub    $0x20,%rsp
    3346:	48 83 4c 24 18 00    	orq    $0x0,0x18(%rsp)
    334c:	48 8b b5 20 fb ff ff 	mov    -0x4e0(%rbp),%rsi
    3353:	f3 0f 6f 16          	movdqu (%rsi),%xmm2
    3357:	48 8d 4c 24 0f       	lea    0xf(%rsp),%rcx
    335c:	0f 29 95 50 fb ff ff 	movaps %xmm2,-0x4b0(%rbp)
    3363:	48 83 e1 f0          	and    $0xfffffffffffffff0,%rcx
    3367:	0f 29 11             	movaps %xmm2,(%rcx)
    336a:	48 8b 46 10          	mov    0x10(%rsi),%rax
    336e:	48 89 41 10          	mov    %rax,0x10(%rcx)
    3372:	48 8b 85 b0 fb ff ff 	mov    -0x450(%rbp),%rax
    3379:	c7 06 00 00 00 00    	movl   $0x0,(%rsi)
    337f:	48 89 46 08          	mov    %rax,0x8(%rsi)
    3383:	48 8b b5 60 fb ff ff 	mov    -0x4a0(%rbp),%rsi
    338a:	48 85 f6             	test   %rsi,%rsi
    338d:	74 12                	je     33a1 <_dl_debug_state@@GLIBC_PRIVATE+0xe91>
    338f:	44 89 ea             	mov    %r13d,%edx
    3392:	41 83 c5 01          	add    $0x1,%r13d
    3396:	48 89 04 d6          	mov    %rax,(%rsi,%rdx,8)
    339a:	48 8b 85 b0 fb ff ff 	mov    -0x450(%rbp),%rax
    33a1:	80 b8 34 03 00 00 3f 	cmpb   $0x3f,0x334(%rax)
    33a8:	0f 87 cb 01 00 00    	ja     3579 <_dl_debug_state@@GLIBC_PRIVATE+0x1069>
    33ae:	48 8b b5 20 fb ff ff 	mov    -0x4e0(%rbp),%rsi
    33b5:	83 85 38 fb ff ff 01 	addl   $0x1,-0x4c8(%rbp)
    33bc:	48 89 4e 10          	mov    %rcx,0x10(%rsi)
    33c0:	0f b6 90 34 03 00 00 	movzbl 0x334(%rax),%edx
    33c7:	83 e2 3f             	and    $0x3f,%edx
    33ca:	83 ca 40             	or     $0x40,%edx
    33cd:	88 90 34 03 00 00    	mov    %dl,0x334(%rax)
    33d3:	48 8b 50 20          	mov    0x20(%rax),%rdx
    33d7:	48 85 d2             	test   %rdx,%rdx
    33da:	74 08                	je     33e4 <_dl_debug_state@@GLIBC_PRIVATE+0xed4>
    33dc:	48 8b 70 18          	mov    0x18(%rax),%rsi
    33e0:	48 89 72 18          	mov    %rsi,0x18(%rdx)
    33e4:	48 8b 70 18          	mov    0x18(%rax),%rsi
    33e8:	48 85 f6             	test   %rsi,%rsi
    33eb:	74 04                	je     33f1 <_dl_debug_state@@GLIBC_PRIVATE+0xee1>
    33ed:	48 89 56 20          	mov    %rdx,0x20(%rsi)
    33f1:	48 8b 51 08          	mov    0x8(%rcx),%rdx
    33f5:	48 8b 72 20          	mov    0x20(%rdx),%rsi
    33f9:	48 89 70 20          	mov    %rsi,0x20(%rax)
    33fd:	48 89 42 20          	mov    %rax,0x20(%rdx)
    3401:	48 8b 70 20          	mov    0x20(%rax),%rsi
    3405:	48 85 f6             	test   %rsi,%rsi
    3408:	74 04                	je     340e <_dl_debug_state@@GLIBC_PRIVATE+0xefe>
    340a:	48 89 46 18          	mov    %rax,0x18(%rsi)
    340e:	48 89 50 18          	mov    %rdx,0x18(%rax)
    3412:	48 8b b5 20 fb ff ff 	mov    -0x4e0(%rbp),%rsi
    3419:	48 39 b5 40 fb ff ff 	cmp    %rsi,-0x4c0(%rbp)
    3420:	0f 84 40 01 00 00    	je     3566 <_dl_debug_state@@GLIBC_PRIVATE+0x1056>
    3426:	48 89 8d 20 fb ff ff 	mov    %rcx,-0x4e0(%rbp)
    342d:	e9 e6 f7 ff ff       	jmp    2c18 <_dl_debug_state@@GLIBC_PRIVATE+0x708>
    3432:	66 0f 1f 44 00 00    	nopw   0x0(%rax,%rax,1)
    3438:	4c 89 95 50 fb ff ff 	mov    %r10,-0x4b0(%rbp)
    343f:	4c 89 f7             	mov    %r14,%rdi
    3442:	4c 89 9d 68 fb ff ff 	mov    %r11,-0x498(%rbp)
    3449:	67 e8 b1 eb 01 00    	addr32 call 22000 <_dl_audit_symbind_alt@@GLIBC_PRIVATE+0xa4b0>
    344f:	4c 8b 95 50 fb ff ff 	mov    -0x4b0(%rbp),%r10
    3456:	4c 8b 9d 68 fb ff ff 	mov    -0x498(%rbp),%r11
    345d:	e9 57 fd ff ff       	jmp    31b9 <_dl_debug_state@@GLIBC_PRIVATE+0xca9>
    3462:	66 0f 1f 44 00 00    	nopw   0x0(%rax,%rax,1)
    3468:	49 83 ba d8 02 00 00 	cmpq   $0x0,0x2d8(%r10)
    346f:	00 
    3470:	0f 84 4f fa ff ff    	je     2ec5 <_dl_debug_state@@GLIBC_PRIVATE+0x9b5>
    3476:	48 8d 0d 93 69 02 00 	lea    0x26993(%rip),%rcx        # 29e10 <__rtld_version_placeholder@GLIBC_2.34+0x35a0>
    347d:	ba c8 01 00 00       	mov    $0x1c8,%edx
    3482:	48 8d 35 9c 55 02 00 	lea    0x2559c(%rip),%rsi        # 28a25 <__rtld_version_placeholder@GLIBC_2.34+0x21b5>
    3489:	48 8d 3d d0 70 02 00 	lea    0x270d0(%rip),%rdi        # 2a560 <__rtld_version_placeholder@GLIBC_2.34+0x3cf0>
    3490:	e8 1b 65 01 00       	call   199b0 <_dl_audit_symbind_alt@@GLIBC_PRIVATE+0x1e60>
    3495:	0f 1f 00             	nopl   (%rax)
    3498:	48 83 4c 04 f8 00    	orq    $0x0,-0x8(%rsp,%rax,1)
    349e:	e9 f9 f2 ff ff       	jmp    279c <_dl_debug_state@@GLIBC_PRIVATE+0x28c>
    34a3:	49 8b 46 08          	mov    0x8(%r14),%rax
    34a7:	80 38 00             	cmpb   $0x0,(%rax)
    34aa:	74 34                	je     34e0 <_dl_debug_state@@GLIBC_PRIVATE+0xfd0>
    34ac:	48 8d 05 fd 05 03 00 	lea    0x305fd(%rip),%rax        # 33ab0 <_rtld_global@@GLIBC_PRIVATE+0xab0>
    34b3:	49 39 c6             	cmp    %rax,%r14
    34b6:	74 28                	je     34e0 <_dl_debug_state@@GLIBC_PRIVATE+0xfd0>
    34b8:	48 8d 0d 51 69 02 00 	lea    0x26951(%rip),%rcx        # 29e10 <__rtld_version_placeholder@GLIBC_2.34+0x35a0>
    34bf:	ba 0f 01 00 00       	mov    $0x10f,%edx
    34c4:	48 8d 35 5a 55 02 00 	lea    0x2555a(%rip),%rsi        # 28a25 <__rtld_version_placeholder@GLIBC_2.34+0x21b5>
    34cb:	48 8d 3d 9e 6f 02 00 	lea    0x26f9e(%rip),%rdi        # 2a470 <__rtld_version_placeholder@GLIBC_2.34+0x3c00>
    34d2:	e8 d9 64 01 00       	call   199b0 <_dl_audit_symbind_alt@@GLIBC_PRIVATE+0x1e60>
    34d7:	66 0f 1f 84 00 00 00 	nopw   0x0(%rax,%rax,1)
    34de:	00 00 
    34e0:	48 89 95 48 fb ff ff 	mov    %rdx,-0x4b8(%rbp)
    34e7:	48 89 8d 50 fb ff ff 	mov    %rcx,-0x4b0(%rbp)
    34ee:	e8 fd 94 00 00       	call   c9f0 <_dl_find_dso_for_object@@GLIBC_PRIVATE+0xf80>
    34f3:	48 8b 8d 50 fb ff ff 	mov    -0x4b0(%rbp),%rcx
    34fa:	48 8b 95 48 fb ff ff 	mov    -0x4b8(%rbp),%rdx
    3501:	49 89 86 68 03 00 00 	mov    %rax,0x368(%r14)
    3508:	48 89 c7             	mov    %rax,%rdi
    350b:	48 8d 40 ff          	lea    -0x1(%rax),%rax
    350f:	48 83 f8 fd          	cmp    $0xfffffffffffffffd,%rax
    3513:	77 26                	ja     353b <_dl_debug_state@@GLIBC_PRIVATE+0x102b>
    3515:	48 89 95 48 fb ff ff 	mov    %rdx,-0x4b8(%rbp)
    351c:	48 89 8d 50 fb ff ff 	mov    %rcx,-0x4b0(%rbp)
    3523:	e8 b8 0c 02 00       	call   241e0 <_dl_audit_symbind_alt@@GLIBC_PRIVATE+0xc690>
    3528:	48 8b 8d 50 fb ff ff 	mov    -0x4b0(%rbp),%rcx
    352f:	48 8b 95 48 fb ff ff 	mov    -0x4b8(%rbp),%rdx
    3536:	e9 a7 f7 ff ff       	jmp    2ce2 <_dl_debug_state@@GLIBC_PRIVATE+0x7d2>
    353b:	31 c0                	xor    %eax,%eax
    353d:	e9 a0 f7 ff ff       	jmp    2ce2 <_dl_debug_state@@GLIBC_PRIVATE+0x7d2>
    3542:	48 89 b5 40 fb ff ff 	mov    %rsi,-0x4c0(%rbp)
    3549:	4d 89 d6             	mov    %r10,%r14
    354c:	c7 85 38 fb ff ff 01 	movl   $0x1,-0x4c8(%rbp)
    3553:	00 00 00 
    3556:	e9 f4 f2 ff ff       	jmp    284f <_dl_debug_state@@GLIBC_PRIVATE+0x33f>
    355b:	44 89 ef             	mov    %r13d,%edi
    355e:	45 89 c5             	mov    %r8d,%r13d
    3561:	e9 64 fb ff ff       	jmp    30ca <_dl_debug_state@@GLIBC_PRIVATE+0xbba>
    3566:	48 89 8d 20 fb ff ff 	mov    %rcx,-0x4e0(%rbp)
    356d:	48 89 8d 40 fb ff ff 	mov    %rcx,-0x4c0(%rbp)
    3574:	e9 9f f6 ff ff       	jmp    2c18 <_dl_debug_state@@GLIBC_PRIVATE+0x708>
    3579:	48 89 ca             	mov    %rcx,%rdx
    357c:	eb 08                	jmp    3586 <_dl_debug_state@@GLIBC_PRIVATE+0x1076>
    357e:	66 90                	xchg   %ax,%ax
    3580:	48 39 42 08          	cmp    %rax,0x8(%rdx)
    3584:	74 5e                	je     35e4 <_dl_debug_state@@GLIBC_PRIVATE+0x10d4>
    3586:	48 89 d6             	mov    %rdx,%rsi
    3589:	48 8b 52 10          	mov    0x10(%rdx),%rdx
    358d:	48 85 d2             	test   %rdx,%rdx
    3590:	75 ee                	jne    3580 <_dl_debug_state@@GLIBC_PRIVATE+0x1070>
    3592:	48 8b b5 20 fb ff ff 	mov    -0x4e0(%rbp),%rsi
    3599:	66 0f 6f 21          	movdqa (%rcx),%xmm4
    359d:	0f 11 26             	movups %xmm4,(%rsi)
    35a0:	48 8b 41 10          	mov    0x10(%rcx),%rax
    35a4:	48 89 46 10          	mov    %rax,0x10(%rsi)
    35a8:	e9 6b f6 ff ff       	jmp    2c18 <_dl_debug_state@@GLIBC_PRIVATE+0x708>
    35ad:	0f 1f 00             	nopl   (%rax)
    35b0:	41 80 a2 34 03 00 00 	andb   $0x3f,0x334(%r10)
    35b7:	3f 
    35b8:	48 83 c6 08          	add    $0x8,%rsi
    35bc:	45 85 c0             	test   %r8d,%r8d
    35bf:	0f 85 f1 f9 ff ff    	jne    2fb6 <_dl_debug_state@@GLIBC_PRIVATE+0xaa6>
    35c5:	48 8d 0d 44 68 02 00 	lea    0x26844(%rip),%rcx        # 29e10 <__rtld_version_placeholder@GLIBC_2.34+0x35a0>
    35cc:	ba 14 02 00 00       	mov    $0x214,%edx
    35d1:	48 8d 35 4d 54 02 00 	lea    0x2544d(%rip),%rsi        # 28a25 <__rtld_version_placeholder@GLIBC_2.34+0x21b5>
    35d8:	48 8d 3d 50 54 02 00 	lea    0x25450(%rip),%rdi        # 28a2f <__rtld_version_placeholder@GLIBC_2.34+0x21bf>
    35df:	e8 cc 63 01 00       	call   199b0 <_dl_audit_symbind_alt@@GLIBC_PRIVATE+0x1e60>
    35e4:	48 8b bd 20 fb ff ff 	mov    -0x4e0(%rbp),%rdi
    35eb:	48 89 4f 10          	mov    %rcx,0x10(%rdi)
    35ef:	48 8b bd 40 fb ff ff 	mov    -0x4c0(%rbp),%rdi
    35f6:	48 8b 56 10          	mov    0x10(%rsi),%rdx
    35fa:	48 39 fa             	cmp    %rdi,%rdx
    35fd:	48 8b 52 10          	mov    0x10(%rdx),%rdx
    3601:	48 0f 44 fe          	cmove  %rsi,%rdi
    3605:	48 89 56 10          	mov    %rdx,0x10(%rsi)
    3609:	48 8b 50 20          	mov    0x20(%rax),%rdx
    360d:	48 89 bd 40 fb ff ff 	mov    %rdi,-0x4c0(%rbp)
    3614:	48 85 d2             	test   %rdx,%rdx
    3617:	0f 85 bf fd ff ff    	jne    33dc <_dl_debug_state@@GLIBC_PRIVATE+0xecc>
    361d:	e9 c2 fd ff ff       	jmp    33e4 <_dl_debug_state@@GLIBC_PRIVATE+0xed4>
    3622:	49 8b 56 08          	mov    0x8(%r14),%rdx
    3626:	80 3a 00             	cmpb   $0x0,(%rdx)
    3629:	75 18                	jne    3643 <_dl_debug_state@@GLIBC_PRIVATE+0x1133>
    362b:	48 8b 05 66 f4 02 00 	mov    0x2f466(%rip),%rax        # 32a98 <_dl_argv@@GLIBC_PRIVATE>
    3632:	48 8b 10             	mov    (%rax),%rdx
    3635:	48 8d 05 da 53 02 00 	lea    0x253da(%rip),%rax        # 28a16 <__rtld_version_placeholder@GLIBC_2.34+0x21a6>
    363c:	48 85 d2             	test   %rdx,%rdx
    363f:	48 0f 44 d0          	cmove  %rax,%rdx
    3643:	4c 89 e6             	mov    %r12,%rsi
    3646:	48 8d 3d c3 6e 02 00 	lea    0x26ec3(%rip),%rdi        # 2a510 <__rtld_version_placeholder@GLIBC_2.34+0x3ca0>
    364d:	31 c0                	xor    %eax,%eax
    364f:	e8 7c 9b 00 00       	call   d1d0 <_dl_find_dso_for_object@@GLIBC_PRIVATE+0x1760>
    3654:	e9 a1 fc ff ff       	jmp    32fa <_dl_debug_state@@GLIBC_PRIVATE+0xdea>
    3659:	48 81 3b fd ff ff 7f 	cmpq   $0x7ffffffd,(%rbx)
    3660:	0f 85 ba f7 ff ff    	jne    2e20 <_dl_debug_state@@GLIBC_PRIVATE+0x910>
    3666:	4c 89 e7             	mov    %r12,%rdi
    3669:	e8 a2 06 00 00       	call   3d10 <_dl_exception_free@@GLIBC_PRIVATE>
    366e:	e9 a5 f5 ff ff       	jmp    2c18 <_dl_debug_state@@GLIBC_PRIVATE+0x708>
    3673:	45 31 ed             	xor    %r13d,%r13d
    3676:	e9 76 f2 ff ff       	jmp    28f1 <_dl_debug_state@@GLIBC_PRIVATE+0x3e1>
    367b:	48 8d 0d c6 6d 02 00 	lea    0x26dc6(%rip),%rcx        # 2a448 <__rtld_version_placeholder@GLIBC_2.34+0x3bd8>
    3682:	31 d2                	xor    %edx,%edx
    3684:	4c 89 e6             	mov    %r12,%rsi
    3687:	31 ff                	xor    %edi,%edi
    3689:	e8 b2 db ff ff       	call   1240 <_dl_signal_error@@GLIBC_PRIVATE>
    368e:	4c 8b 95 28 fb ff ff 	mov    -0x4d8(%rbp),%r10
    3695:	48 8d 0d 84 6d 02 00 	lea    0x26d84(%rip),%rcx        # 2a420 <__rtld_version_placeholder@GLIBC_2.34+0x3bb0>
    369c:	31 d2                	xor    %edx,%edx
    369e:	bf 0c 00 00 00       	mov    $0xc,%edi
    36a3:	49 8b 72 08          	mov    0x8(%r10),%rsi
    36a7:	e8 94 db ff ff       	call   1240 <_dl_signal_error@@GLIBC_PRIVATE>
    36ac:	4c 89 e6             	mov    %r12,%rsi
    36af:	48 8d 0d 32 6e 02 00 	lea    0x26e32(%rip),%rcx        # 2a4e8 <__rtld_version_placeholder@GLIBC_2.34+0x3c78>
    36b6:	31 d2                	xor    %edx,%edx
    36b8:	31 ff                	xor    %edi,%edi
    36ba:	e8 81 db ff ff       	call   1240 <_dl_signal_error@@GLIBC_PRIVATE>
    36bf:	48 8d 0d 4a 67 02 00 	lea    0x2674a(%rip),%rcx        # 29e10 <__rtld_version_placeholder@GLIBC_2.34+0x35a0>
    36c6:	ba e4 00 00 00       	mov    $0xe4,%edx
    36cb:	48 8d 35 53 53 02 00 	lea    0x25353(%rip),%rsi        # 28a25 <__rtld_version_placeholder@GLIBC_2.34+0x21b5>
    36d2:	48 8d 3d 97 6d 02 00 	lea    0x26d97(%rip),%rdi        # 2a470 <__rtld_version_placeholder@GLIBC_2.34+0x3c00>
    36d9:	e8 d2 62 01 00       	call   199b0 <_dl_audit_symbind_alt@@GLIBC_PRIVATE+0x1e60>
    36de:	4c 89 e6             	mov    %r12,%rsi
    36e1:	48 8d 0d 60 6d 02 00 	lea    0x26d60(%rip),%rcx        # 2a448 <__rtld_version_placeholder@GLIBC_2.34+0x3bd8>
    36e8:	31 d2                	xor    %edx,%edx
    36ea:	31 ff                	xor    %edi,%edi
    36ec:	e8 4f db ff ff       	call   1240 <_dl_signal_error@@GLIBC_PRIVATE>
    36f1:	49 8b 72 08          	mov    0x8(%r10),%rsi
    36f5:	48 8d 0d 8c 6e 02 00 	lea    0x26e8c(%rip),%rcx        # 2a588 <__rtld_version_placeholder@GLIBC_2.34+0x3d18>
    36fc:	31 d2                	xor    %edx,%edx
    36fe:	bf 0c 00 00 00       	mov    $0xc,%edi
    3703:	e8 38 db ff ff       	call   1240 <_dl_signal_error@@GLIBC_PRIVATE>
    3708:	48 8b 9d 18 fb ff ff 	mov    -0x4e8(%rbp),%rbx
    370f:	48 8b bd c0 fb ff ff 	mov    -0x440(%rbp),%rdi
    3716:	4c 8b 95 28 fb ff ff 	mov    -0x4d8(%rbp),%r10
    371d:	48 39 df             	cmp    %rbx,%rdi
    3720:	74 14                	je     3736 <_dl_debug_state@@GLIBC_PRIVATE+0x1226>
    3722:	4c 89 95 68 fb ff ff 	mov    %r10,-0x498(%rbp)
    3729:	ff 15 09 f3 02 00    	call   *0x2f309(%rip)        # 32a38 <__rseq_size@@GLIBC_2.35+0x1268>
    372f:	4c 8b 95 68 fb ff ff 	mov    -0x498(%rbp),%r10
    3736:	49 8b 72 08          	mov    0x8(%r10),%rsi
    373a:	48 8d 0d ff 6d 02 00 	lea    0x26dff(%rip),%rcx        # 2a540 <__rtld_version_placeholder@GLIBC_2.34+0x3cd0>
    3741:	31 d2                	xor    %edx,%edx
    3743:	bf 0c 00 00 00       	mov    $0xc,%edi
    3748:	e8 f3 da ff ff       	call   1240 <_dl_signal_error@@GLIBC_PRIVATE>
    374d:	41 83 fc ff          	cmp    $0xffffffff,%r12d
    3751:	75 03                	jne    3756 <_dl_debug_state@@GLIBC_PRIVATE+0x1246>
    3753:	45 31 e4             	xor    %r12d,%r12d
    3756:	48 8d b5 70 fb ff ff 	lea    -0x490(%rbp),%rsi
    375d:	31 d2                	xor    %edx,%edx
    375f:	44 89 e7             	mov    %r12d,%edi
    3762:	e8 79 da ff ff       	call   11e0 <_dl_signal_exception@@GLIBC_PRIVATE>
    3767:	66 0f 1f 84 00 00 00 	nopw   0x0(%rax,%rax,1)
    376e:	00 00 
    3770:	50                   	push   %rax
    3771:	58                   	pop    %rax
    3772:	48 8d 3d 37 6e 02 00 	lea    0x26e37(%rip),%rdi        # 2a5b0 <__rtld_version_placeholder@GLIBC_2.34+0x3d40>
    3779:	31 c0                	xor    %eax,%eax
    377b:	48 83 ec 08          	sub    $0x8,%rsp
    377f:	e8 ac 9d 00 00       	call   d530 <_dl_fatal_printf@@GLIBC_PRIVATE>
    3784:	66 66 2e 0f 1f 84 00 	data16 cs nopw 0x0(%rax,%rax,1)
    378b:	00 00 00 00 
    378f:	90                   	nop
    3790:	f3 0f 1e fa          	endbr64
    3794:	48 8d 05 8d 6e 02 00 	lea    0x26e8d(%rip),%rax        # 2a628 <__rtld_version_placeholder@GLIBC_2.34+0x3db8>
    379b:	48 39 c7             	cmp    %rax,%rdi
    379e:	74 10                	je     37b0 <_dl_debug_state@@GLIBC_PRIVATE+0x12a0>
    37a0:	ff 25 92 f2 02 00    	jmp    *0x2f292(%rip)        # 32a38 <__rseq_size@@GLIBC_2.35+0x1268>
    37a6:	66 2e 0f 1f 84 00 00 	cs nopw 0x0(%rax,%rax,1)
    37ad:	00 00 00 
    37b0:	c3                   	ret
    37b1:	66 66 2e 0f 1f 84 00 	data16 cs nopw 0x0(%rax,%rax,1)
    37b8:	00 00 00 00 
    37bc:	0f 1f 40 00          	nopl   0x0(%rax)

00000000000037c0 <_dl_exception_create@@GLIBC_PRIVATE>:
    37c0:	f3 0f 1e fa          	endbr64
    37c4:	41 57                	push   %r15
    37c6:	41 56                	push   %r14
    37c8:	41 be 01 00 00 00    	mov    $0x1,%r14d
    37ce:	41 55                	push   %r13
    37d0:	49 89 d5             	mov    %rdx,%r13
    37d3:	41 54                	push   %r12
    37d5:	49 89 fc             	mov    %rdi,%r12
    37d8:	55                   	push   %rbp
    37d9:	48 8d 2d cf 64 02 00 	lea    0x264cf(%rip),%rbp        # 29caf <__rtld_version_placeholder@GLIBC_2.34+0x343f>
    37e0:	53                   	push   %rbx
    37e1:	48 83 ec 08          	sub    $0x8,%rsp
    37e5:	48 85 f6             	test   %rsi,%rsi
    37e8:	74 0f                	je     37f9 <_dl_exception_create@@GLIBC_PRIVATE+0x39>
    37ea:	48 89 f7             	mov    %rsi,%rdi
    37ed:	48 89 f5             	mov    %rsi,%rbp
    37f0:	e8 eb 09 02 00       	call   241e0 <_dl_audit_symbind_alt@@GLIBC_PRIVATE+0xc690>
    37f5:	4c 8d 70 01          	lea    0x1(%rax),%r14
    37f9:	4c 89 ef             	mov    %r13,%rdi
    37fc:	e8 df 09 02 00       	call   241e0 <_dl_audit_symbind_alt@@GLIBC_PRIVATE+0xc690>
    3801:	4c 8d 78 01          	lea    0x1(%rax),%r15
    3805:	4b 8d 3c 37          	lea    (%r15,%r14,1),%rdi
    3809:	ff 15 21 f2 02 00    	call   *0x2f221(%rip)        # 32a30 <__rseq_size@@GLIBC_2.35+0x1260>
    380f:	48 89 c3             	mov    %rax,%rbx
    3812:	48 85 c0             	test   %rax,%rax
    3815:	74 59                	je     3870 <_dl_exception_create@@GLIBC_PRIVATE+0xb0>
    3817:	4c 89 fa             	mov    %r15,%rdx
    381a:	4c 89 ee             	mov    %r13,%rsi
    381d:	48 89 c7             	mov    %rax,%rdi
    3820:	67 e8 ca e7 01 00    	addr32 call 21ff0 <_dl_audit_symbind_alt@@GLIBC_PRIVATE+0xa4a0>
    3826:	4c 89 f2             	mov    %r14,%rdx
    3829:	48 89 ee             	mov    %rbp,%rsi
    382c:	48 89 c7             	mov    %rax,%rdi
    382f:	67 e8 cb e7 01 00    	addr32 call 22000 <_dl_audit_symbind_alt@@GLIBC_PRIVATE+0xa4b0>
    3835:	49 89 5c 24 08       	mov    %rbx,0x8(%r12)
    383a:	49 89 04 24          	mov    %rax,(%r12)
    383e:	48 8b 05 bb f7 02 00 	mov    0x2f7bb(%rip),%rax        # 33000 <_rtld_global@@GLIBC_PRIVATE>
    3845:	48 85 c0             	test   %rax,%rax
    3848:	74 47                	je     3891 <_dl_exception_create@@GLIBC_PRIVATE+0xd1>
    384a:	f6 80 34 03 00 00 08 	testb  $0x8,0x334(%rax)
    3851:	74 3e                	je     3891 <_dl_exception_create@@GLIBC_PRIVATE+0xd1>
    3853:	49 89 5c 24 10       	mov    %rbx,0x10(%r12)
    3858:	48 83 c4 08          	add    $0x8,%rsp
    385c:	5b                   	pop    %rbx
    385d:	5d                   	pop    %rbp
    385e:	41 5c                	pop    %r12
    3860:	41 5d                	pop    %r13
    3862:	41 5e                	pop    %r14
    3864:	41 5f                	pop    %r15
    3866:	c3                   	ret
    3867:	66 0f 1f 84 00 00 00 	nopw   0x0(%rax,%rax,1)
    386e:	00 00 
    3870:	48 8d 05 b1 6d 02 00 	lea    0x26db1(%rip),%rax        # 2a628 <__rtld_version_placeholder@GLIBC_2.34+0x3db8>
    3877:	48 8d 0d 31 64 02 00 	lea    0x26431(%rip),%rcx        # 29caf <__rtld_version_placeholder@GLIBC_2.34+0x343f>
    387e:	66 48 0f 6e c1       	movq   %rcx,%xmm0
    3883:	66 48 0f 6e c8       	movq   %rax,%xmm1
    3888:	66 0f 6c c1          	punpcklqdq %xmm1,%xmm0
    388c:	41 0f 11 04 24       	movups %xmm0,(%r12)
    3891:	31 db                	xor    %ebx,%ebx
    3893:	eb be                	jmp    3853 <_dl_exception_create@@GLIBC_PRIVATE+0x93>
    3895:	66 66 2e 0f 1f 84 00 	data16 cs nopw 0x0(%rax,%rax,1)
    389c:	00 00 00 00 

00000000000038a0 <_dl_exception_create_format@@GLIBC_PRIVATE>:
    38a0:	f3 0f 1e fa          	endbr64
    38a4:	41 57                	push   %r15
    38a6:	49 89 d7             	mov    %rdx,%r15
    38a9:	41 56                	push   %r14
    38ab:	41 55                	push   %r13
    38ad:	41 54                	push   %r12
    38af:	55                   	push   %rbp
    38b0:	53                   	push   %rbx
    38b1:	48 83 ec 78          	sub    $0x78,%rsp
    38b5:	48 89 7c 24 08       	mov    %rdi,0x8(%rsp)
    38ba:	48 89 74 24 10       	mov    %rsi,0x10(%rsp)
    38bf:	48 89 4c 24 58       	mov    %rcx,0x58(%rsp)
    38c4:	4c 89 44 24 60       	mov    %r8,0x60(%rsp)
    38c9:	4c 89 4c 24 68       	mov    %r9,0x68(%rsp)
    38ce:	48 85 f6             	test   %rsi,%rsi
    38d1:	0f 84 09 04 00 00    	je     3ce0 <_dl_exception_create_format@@GLIBC_PRIVATE+0x440>
    38d7:	48 89 f7             	mov    %rsi,%rdi
    38da:	e8 01 09 02 00       	call   241e0 <_dl_audit_symbind_alt@@GLIBC_PRIVATE+0xc690>
    38df:	48 8d 48 01          	lea    0x1(%rax),%rcx
    38e3:	4c 8d 68 02          	lea    0x2(%rax),%r13
    38e7:	48 89 4c 24 18       	mov    %rcx,0x18(%rsp)
    38ec:	48 8d 84 24 b0 00 00 	lea    0xb0(%rsp),%rax
    38f3:	00 
    38f4:	c7 44 24 28 18 00 00 	movl   $0x18,0x28(%rsp)
    38fb:	00 
    38fc:	48 89 44 24 30       	mov    %rax,0x30(%rsp)
    3901:	48 8d 44 24 40       	lea    0x40(%rsp),%rax
    3906:	48 89 44 24 38       	mov    %rax,0x38(%rsp)
    390b:	41 0f b6 07          	movzbl (%r15),%eax
    390f:	84 c0                	test   %al,%al
    3911:	0f 84 82 00 00 00    	je     3999 <_dl_exception_create_format@@GLIBC_PRIVATE+0xf9>
    3917:	4c 89 fa             	mov    %r15,%rdx
    391a:	eb 17                	jmp    3933 <_dl_exception_create_format@@GLIBC_PRIVATE+0x93>
    391c:	0f 1f 40 00          	nopl   0x0(%rax)
    3920:	49 83 c5 01          	add    $0x1,%r13
    3924:	48 89 d3             	mov    %rdx,%rbx
    3927:	0f b6 43 01          	movzbl 0x1(%rbx),%eax
    392b:	48 8d 53 01          	lea    0x1(%rbx),%rdx
    392f:	84 c0                	test   %al,%al
    3931:	74 5d                	je     3990 <_dl_exception_create_format@@GLIBC_PRIVATE+0xf0>
    3933:	48 8d 5a 01          	lea    0x1(%rdx),%rbx
    3937:	3c 25                	cmp    $0x25,%al
    3939:	75 e5                	jne    3920 <_dl_exception_create_format@@GLIBC_PRIVATE+0x80>
    393b:	0f b6 42 01          	movzbl 0x1(%rdx),%eax
    393f:	3c 78                	cmp    $0x78,%al
    3941:	0f 84 83 01 00 00    	je     3aca <_dl_exception_create_format@@GLIBC_PRIVATE+0x22a>
    3947:	0f 8f 73 01 00 00    	jg     3ac0 <_dl_exception_create_format@@GLIBC_PRIVATE+0x220>
    394d:	3c 6c                	cmp    $0x6c,%al
    394f:	0f 84 6f 01 00 00    	je     3ac4 <_dl_exception_create_format@@GLIBC_PRIVATE+0x224>
    3955:	3c 73                	cmp    $0x73,%al
    3957:	0f 85 7b 01 00 00    	jne    3ad8 <_dl_exception_create_format@@GLIBC_PRIVATE+0x238>
    395d:	8b 44 24 28          	mov    0x28(%rsp),%eax
    3961:	83 f8 2f             	cmp    $0x2f,%eax
    3964:	0f 87 7e 01 00 00    	ja     3ae8 <_dl_exception_create_format@@GLIBC_PRIVATE+0x248>
    396a:	89 c2                	mov    %eax,%edx
    396c:	83 c0 08             	add    $0x8,%eax
    396f:	48 03 54 24 38       	add    0x38(%rsp),%rdx
    3974:	89 44 24 28          	mov    %eax,0x28(%rsp)
    3978:	48 8b 3a             	mov    (%rdx),%rdi
    397b:	e8 60 08 02 00       	call   241e0 <_dl_audit_symbind_alt@@GLIBC_PRIVATE+0xc690>
    3980:	48 8d 53 01          	lea    0x1(%rbx),%rdx
    3984:	49 01 c5             	add    %rax,%r13
    3987:	0f b6 43 01          	movzbl 0x1(%rbx),%eax
    398b:	84 c0                	test   %al,%al
    398d:	75 a4                	jne    3933 <_dl_exception_create_format@@GLIBC_PRIVATE+0x93>
    398f:	90                   	nop
    3990:	4d 85 ed             	test   %r13,%r13
    3993:	0f 88 07 03 00 00    	js     3ca0 <_dl_exception_create_format@@GLIBC_PRIVATE+0x400>
    3999:	4c 89 ef             	mov    %r13,%rdi
    399c:	ff 15 8e f0 02 00    	call   *0x2f08e(%rip)        # 32a30 <__rseq_size@@GLIBC_2.35+0x1260>
    39a2:	48 89 c3             	mov    %rax,%rbx
    39a5:	48 85 c0             	test   %rax,%rax
    39a8:	0f 84 f2 02 00 00    	je     3ca0 <_dl_exception_create_format@@GLIBC_PRIVATE+0x400>
    39ae:	48 8b 44 24 08       	mov    0x8(%rsp),%rax
    39b3:	48 8b 15 46 f6 02 00 	mov    0x2f646(%rip),%rdx        # 33000 <_rtld_global@@GLIBC_PRIVATE>
    39ba:	48 89 58 08          	mov    %rbx,0x8(%rax)
    39be:	31 c0                	xor    %eax,%eax
    39c0:	48 85 d2             	test   %rdx,%rdx
    39c3:	74 0b                	je     39d0 <_dl_exception_create_format@@GLIBC_PRIVATE+0x130>
    39c5:	f6 82 34 03 00 00 08 	testb  $0x8,0x334(%rdx)
    39cc:	48 0f 45 c3          	cmovne %rbx,%rax
    39d0:	48 8b 4c 24 08       	mov    0x8(%rsp),%rcx
    39d5:	c7 44 24 28 18 00 00 	movl   $0x18,0x28(%rsp)
    39dc:	00 
    39dd:	49 01 dd             	add    %rbx,%r13
    39e0:	48 89 41 10          	mov    %rax,0x10(%rcx)
    39e4:	48 8d 84 24 b0 00 00 	lea    0xb0(%rsp),%rax
    39eb:	00 
    39ec:	48 89 44 24 30       	mov    %rax,0x30(%rsp)
    39f1:	48 8d 44 24 40       	lea    0x40(%rsp),%rax
    39f6:	48 89 44 24 38       	mov    %rax,0x38(%rsp)
    39fb:	41 0f b6 07          	movzbl (%r15),%eax
    39ff:	84 c0                	test   %al,%al
    3a01:	74 6d                	je     3a70 <_dl_exception_create_format@@GLIBC_PRIVATE+0x1d0>
    3a03:	48 8d 2d a6 67 02 00 	lea    0x267a6(%rip),%rbp        # 2a1b0 <__rtld_version_placeholder@GLIBC_2.34+0x3940>
    3a0a:	eb 23                	jmp    3a2f <_dl_exception_create_format@@GLIBC_PRIVATE+0x18f>
    3a0c:	0f 1f 40 00          	nopl   0x0(%rax)
    3a10:	49 39 dd             	cmp    %rbx,%r13
    3a13:	0f 84 e7 02 00 00    	je     3d00 <_dl_exception_create_format@@GLIBC_PRIVATE+0x460>
    3a19:	88 03                	mov    %al,(%rbx)
    3a1b:	4d 89 fe             	mov    %r15,%r14
    3a1e:	48 83 c3 01          	add    $0x1,%rbx
    3a22:	41 0f b6 46 01       	movzbl 0x1(%r14),%eax
    3a27:	4d 8d 7e 01          	lea    0x1(%r14),%r15
    3a2b:	84 c0                	test   %al,%al
    3a2d:	74 41                	je     3a70 <_dl_exception_create_format@@GLIBC_PRIVATE+0x1d0>
    3a2f:	3c 25                	cmp    $0x25,%al
    3a31:	75 dd                	jne    3a10 <_dl_exception_create_format@@GLIBC_PRIVATE+0x170>
    3a33:	41 0f b6 47 01       	movzbl 0x1(%r15),%eax
    3a38:	4d 8d 77 01          	lea    0x1(%r15),%r14
    3a3c:	3c 73                	cmp    $0x73,%al
    3a3e:	0f 84 3c 01 00 00    	je     3b80 <_dl_exception_create_format@@GLIBC_PRIVATE+0x2e0>
    3a44:	0f 8f c6 00 00 00    	jg     3b10 <_dl_exception_create_format@@GLIBC_PRIVATE+0x270>
    3a4a:	3c 25                	cmp    $0x25,%al
    3a4c:	0f 85 f6 01 00 00    	jne    3c48 <_dl_exception_create_format@@GLIBC_PRIVATE+0x3a8>
    3a52:	49 39 dd             	cmp    %rbx,%r13
    3a55:	0f 84 a5 02 00 00    	je     3d00 <_dl_exception_create_format@@GLIBC_PRIVATE+0x460>
    3a5b:	c6 03 25             	movb   $0x25,(%rbx)
    3a5e:	41 0f b6 46 01       	movzbl 0x1(%r14),%eax
    3a63:	48 83 c3 01          	add    $0x1,%rbx
    3a67:	4d 8d 7e 01          	lea    0x1(%r14),%r15
    3a6b:	84 c0                	test   %al,%al
    3a6d:	75 c0                	jne    3a2f <_dl_exception_create_format@@GLIBC_PRIVATE+0x18f>
    3a6f:	90                   	nop
    3a70:	49 39 dd             	cmp    %rbx,%r13
    3a73:	0f 84 87 02 00 00    	je     3d00 <_dl_exception_create_format@@GLIBC_PRIVATE+0x460>
    3a79:	48 8d 7b 01          	lea    0x1(%rbx),%rdi
    3a7d:	4c 89 e9             	mov    %r13,%rcx
    3a80:	48 8b 44 24 18       	mov    0x18(%rsp),%rax
    3a85:	c6 03 00             	movb   $0x0,(%rbx)
    3a88:	48 29 f9             	sub    %rdi,%rcx
    3a8b:	48 39 c1             	cmp    %rax,%rcx
    3a8e:	0f 85 6c 02 00 00    	jne    3d00 <_dl_exception_create_format@@GLIBC_PRIVATE+0x460>
    3a94:	48 8b 74 24 10       	mov    0x10(%rsp),%rsi
    3a99:	48 89 c2             	mov    %rax,%rdx
    3a9c:	67 e8 5e e5 01 00    	addr32 call 22000 <_dl_audit_symbind_alt@@GLIBC_PRIVATE+0xa4b0>
    3aa2:	48 8b 4c 24 08       	mov    0x8(%rsp),%rcx
    3aa7:	48 89 01             	mov    %rax,(%rcx)
    3aaa:	48 83 c4 78          	add    $0x78,%rsp
    3aae:	5b                   	pop    %rbx
    3aaf:	5d                   	pop    %rbp
    3ab0:	41 5c                	pop    %r12
    3ab2:	41 5d                	pop    %r13
    3ab4:	41 5e                	pop    %r14
    3ab6:	41 5f                	pop    %r15
    3ab8:	c3                   	ret
    3ab9:	0f 1f 80 00 00 00 00 	nopl   0x0(%rax)
    3ac0:	3c 7a                	cmp    $0x7a,%al
    3ac2:	75 14                	jne    3ad8 <_dl_exception_create_format@@GLIBC_PRIVATE+0x238>
    3ac4:	80 7a 02 78          	cmpb   $0x78,0x2(%rdx)
    3ac8:	74 31                	je     3afb <_dl_exception_create_format@@GLIBC_PRIVATE+0x25b>
    3aca:	49 83 c5 08          	add    $0x8,%r13
    3ace:	e9 54 fe ff ff       	jmp    3927 <_dl_exception_create_format@@GLIBC_PRIVATE+0x87>
    3ad3:	0f 1f 44 00 00       	nopl   0x0(%rax,%rax,1)
    3ad8:	49 83 c5 01          	add    $0x1,%r13
    3adc:	e9 46 fe ff ff       	jmp    3927 <_dl_exception_create_format@@GLIBC_PRIVATE+0x87>
    3ae1:	0f 1f 80 00 00 00 00 	nopl   0x0(%rax)
    3ae8:	48 8b 54 24 30       	mov    0x30(%rsp),%rdx
    3aed:	48 8d 42 08          	lea    0x8(%rdx),%rax
    3af1:	48 89 44 24 30       	mov    %rax,0x30(%rsp)
    3af6:	e9 7d fe ff ff       	jmp    3978 <_dl_exception_create_format@@GLIBC_PRIVATE+0xd8>
    3afb:	49 83 c5 10          	add    $0x10,%r13
    3aff:	48 8d 5a 02          	lea    0x2(%rdx),%rbx
    3b03:	e9 1f fe ff ff       	jmp    3927 <_dl_exception_create_format@@GLIBC_PRIVATE+0x87>
    3b08:	0f 1f 84 00 00 00 00 	nopl   0x0(%rax,%rax,1)
    3b0f:	00 
    3b10:	3c 78                	cmp    $0x78,%al
    3b12:	0f 85 b8 00 00 00    	jne    3bd0 <_dl_exception_create_format@@GLIBC_PRIVATE+0x330>
    3b18:	8b 44 24 28          	mov    0x28(%rsp),%eax
    3b1c:	83 f8 2f             	cmp    $0x2f,%eax
    3b1f:	0f 87 4b 01 00 00    	ja     3c70 <_dl_exception_create_format@@GLIBC_PRIVATE+0x3d0>
    3b25:	89 c2                	mov    %eax,%edx
    3b27:	83 c0 08             	add    $0x8,%eax
    3b2a:	48 03 54 24 38       	add    0x38(%rsp),%rdx
    3b2f:	89 44 24 28          	mov    %eax,0x28(%rsp)
    3b33:	4c 8d 7b 08          	lea    0x8(%rbx),%r15
    3b37:	8b 02                	mov    (%rdx),%eax
    3b39:	4c 89 fa             	mov    %r15,%rdx
    3b3c:	0f 1f 40 00          	nopl   0x0(%rax)
    3b40:	48 89 c6             	mov    %rax,%rsi
    3b43:	48 83 ea 01          	sub    $0x1,%rdx
    3b47:	83 e6 0f             	and    $0xf,%esi
    3b4a:	0f b6 74 35 00       	movzbl 0x0(%rbp,%rsi,1),%esi
    3b4f:	40 88 32             	mov    %sil,(%rdx)
    3b52:	48 89 c6             	mov    %rax,%rsi
    3b55:	48 c1 e8 04          	shr    $0x4,%rax
    3b59:	48 83 fe 0f          	cmp    $0xf,%rsi
    3b5d:	77 e1                	ja     3b40 <_dl_exception_create_format@@GLIBC_PRIVATE+0x2a0>
    3b5f:	48 39 da             	cmp    %rbx,%rdx
    3b62:	74 11                	je     3b75 <_dl_exception_create_format@@GLIBC_PRIVATE+0x2d5>
    3b64:	48 29 da             	sub    %rbx,%rdx
    3b67:	be 30 00 00 00       	mov    $0x30,%esi
    3b6c:	48 89 df             	mov    %rbx,%rdi
    3b6f:	67 e8 7b e6 01 00    	addr32 call 221f0 <_dl_audit_symbind_alt@@GLIBC_PRIVATE+0xa6a0>
    3b75:	4c 89 fb             	mov    %r15,%rbx
    3b78:	e9 a5 fe ff ff       	jmp    3a22 <_dl_exception_create_format@@GLIBC_PRIVATE+0x182>
    3b7d:	0f 1f 00             	nopl   (%rax)
    3b80:	8b 44 24 28          	mov    0x28(%rsp),%eax
    3b84:	83 f8 2f             	cmp    $0x2f,%eax
    3b87:	0f 87 fb 00 00 00    	ja     3c88 <_dl_exception_create_format@@GLIBC_PRIVATE+0x3e8>
    3b8d:	89 c2                	mov    %eax,%edx
    3b8f:	83 c0 08             	add    $0x8,%eax
    3b92:	48 03 54 24 38       	add    0x38(%rsp),%rdx
    3b97:	89 44 24 28          	mov    %eax,0x28(%rsp)
    3b9b:	4c 8b 3a             	mov    (%rdx),%r15
    3b9e:	4c 89 ff             	mov    %r15,%rdi
    3ba1:	e8 3a 06 02 00       	call   241e0 <_dl_audit_symbind_alt@@GLIBC_PRIVATE+0xc690>
    3ba6:	48 89 c2             	mov    %rax,%rdx
    3ba9:	4c 89 e8             	mov    %r13,%rax
    3bac:	48 29 d8             	sub    %rbx,%rax
    3baf:	48 39 d0             	cmp    %rdx,%rax
    3bb2:	0f 82 48 01 00 00    	jb     3d00 <_dl_exception_create_format@@GLIBC_PRIVATE+0x460>
    3bb8:	48 89 df             	mov    %rbx,%rdi
    3bbb:	4c 89 fe             	mov    %r15,%rsi
    3bbe:	67 e8 2c e4 01 00    	addr32 call 21ff0 <_dl_audit_symbind_alt@@GLIBC_PRIVATE+0xa4a0>
    3bc4:	48 89 c3             	mov    %rax,%rbx
    3bc7:	e9 56 fe ff ff       	jmp    3a22 <_dl_exception_create_format@@GLIBC_PRIVATE+0x182>
    3bcc:	0f 1f 40 00          	nopl   0x0(%rax)
    3bd0:	3c 7a                	cmp    $0x7a,%al
    3bd2:	75 78                	jne    3c4c <_dl_exception_create_format@@GLIBC_PRIVATE+0x3ac>
    3bd4:	41 80 7f 02 78       	cmpb   $0x78,0x2(%r15)
    3bd9:	75 71                	jne    3c4c <_dl_exception_create_format@@GLIBC_PRIVATE+0x3ac>
    3bdb:	8b 44 24 28          	mov    0x28(%rsp),%eax
    3bdf:	83 f8 2f             	cmp    $0x2f,%eax
    3be2:	77 7c                	ja     3c60 <_dl_exception_create_format@@GLIBC_PRIVATE+0x3c0>
    3be4:	89 c2                	mov    %eax,%edx
    3be6:	83 c0 08             	add    $0x8,%eax
    3be9:	48 03 54 24 38       	add    0x38(%rsp),%rdx
    3bee:	89 44 24 28          	mov    %eax,0x28(%rsp)
    3bf2:	4c 8d 63 10          	lea    0x10(%rbx),%r12
    3bf6:	48 8b 02             	mov    (%rdx),%rax
    3bf9:	4c 89 e2             	mov    %r12,%rdx
    3bfc:	0f 1f 40 00          	nopl   0x0(%rax)
    3c00:	48 89 c6             	mov    %rax,%rsi
    3c03:	48 83 ea 01          	sub    $0x1,%rdx
    3c07:	83 e6 0f             	and    $0xf,%esi
    3c0a:	0f b6 74 35 00       	movzbl 0x0(%rbp,%rsi,1),%esi
    3c0f:	40 88 32             	mov    %sil,(%rdx)
    3c12:	48 89 c6             	mov    %rax,%rsi
    3c15:	48 c1 e8 04          	shr    $0x4,%rax
    3c19:	48 83 fe 0f          	cmp    $0xf,%rsi
    3c1d:	77 e1                	ja     3c00 <_dl_exception_create_format@@GLIBC_PRIVATE+0x360>
    3c1f:	48 39 da             	cmp    %rbx,%rdx
    3c22:	74 11                	je     3c35 <_dl_exception_create_format@@GLIBC_PRIVATE+0x395>
    3c24:	48 29 da             	sub    %rbx,%rdx
    3c27:	be 30 00 00 00       	mov    $0x30,%esi
    3c2c:	48 89 df             	mov    %rbx,%rdi
    3c2f:	67 e8 bb e5 01 00    	addr32 call 221f0 <_dl_audit_symbind_alt@@GLIBC_PRIVATE+0xa6a0>
    3c35:	4d 8d 77 02          	lea    0x2(%r15),%r14
    3c39:	4c 89 e3             	mov    %r12,%rbx
    3c3c:	e9 e1 fd ff ff       	jmp    3a22 <_dl_exception_create_format@@GLIBC_PRIVATE+0x182>
    3c41:	0f 1f 80 00 00 00 00 	nopl   0x0(%rax)
    3c48:	3c 6c                	cmp    $0x6c,%al
    3c4a:	74 88                	je     3bd4 <_dl_exception_create_format@@GLIBC_PRIVATE+0x334>
    3c4c:	48 8d 3d 9d 69 02 00 	lea    0x2699d(%rip),%rdi        # 2a5f0 <__rtld_version_placeholder@GLIBC_2.34+0x3d80>
    3c53:	31 c0                	xor    %eax,%eax
    3c55:	e8 d6 98 00 00       	call   d530 <_dl_fatal_printf@@GLIBC_PRIVATE>
    3c5a:	66 0f 1f 44 00 00    	nopw   0x0(%rax,%rax,1)
    3c60:	48 8b 54 24 30       	mov    0x30(%rsp),%rdx
    3c65:	48 8d 42 08          	lea    0x8(%rdx),%rax
    3c69:	48 89 44 24 30       	mov    %rax,0x30(%rsp)
    3c6e:	eb 82                	jmp    3bf2 <_dl_exception_create_format@@GLIBC_PRIVATE+0x352>
    3c70:	48 8b 54 24 30       	mov    0x30(%rsp),%rdx
    3c75:	48 8d 42 08          	lea    0x8(%rdx),%rax
    3c79:	48 89 44 24 30       	mov    %rax,0x30(%rsp)
    3c7e:	e9 b0 fe ff ff       	jmp    3b33 <_dl_exception_create_format@@GLIBC_PRIVATE+0x293>
    3c83:	0f 1f 44 00 00       	nopl   0x0(%rax,%rax,1)
    3c88:	48 8b 54 24 30       	mov    0x30(%rsp),%rdx
    3c8d:	48 8d 42 08          	lea    0x8(%rdx),%rax
    3c91:	48 89 44 24 30       	mov    %rax,0x30(%rsp)
    3c96:	e9 00 ff ff ff       	jmp    3b9b <_dl_exception_create_format@@GLIBC_PRIVATE+0x2fb>
    3c9b:	0f 1f 44 00 00       	nopl   0x0(%rax,%rax,1)
    3ca0:	48 8d 05 81 69 02 00 	lea    0x26981(%rip),%rax        # 2a628 <__rtld_version_placeholder@GLIBC_2.34+0x3db8>
    3ca7:	48 8d 0d 01 60 02 00 	lea    0x26001(%rip),%rcx        # 29caf <__rtld_version_placeholder@GLIBC_2.34+0x343f>
    3cae:	66 48 0f 6e c8       	movq   %rax,%xmm1
    3cb3:	66 48 0f 6e c1       	movq   %rcx,%xmm0
    3cb8:	48 8b 44 24 08       	mov    0x8(%rsp),%rax
    3cbd:	66 0f 6c c1          	punpcklqdq %xmm1,%xmm0
    3cc1:	48 c7 40 10 00 00 00 	movq   $0x0,0x10(%rax)
    3cc8:	00 
    3cc9:	0f 11 00             	movups %xmm0,(%rax)
    3ccc:	48 83 c4 78          	add    $0x78,%rsp
    3cd0:	5b                   	pop    %rbx
    3cd1:	5d                   	pop    %rbp
    3cd2:	41 5c                	pop    %r12
    3cd4:	41 5d                	pop    %r13
    3cd6:	41 5e                	pop    %r14
    3cd8:	41 5f                	pop    %r15
    3cda:	c3                   	ret
    3cdb:	0f 1f 44 00 00       	nopl   0x0(%rax,%rax,1)
    3ce0:	48 8d 05 c8 5f 02 00 	lea    0x25fc8(%rip),%rax        # 29caf <__rtld_version_placeholder@GLIBC_2.34+0x343f>
    3ce7:	41 bd 02 00 00 00    	mov    $0x2,%r13d
    3ced:	48 c7 44 24 18 01 00 	movq   $0x1,0x18(%rsp)
    3cf4:	00 00 
    3cf6:	48 89 44 24 10       	mov    %rax,0x10(%rsp)
    3cfb:	e9 ec fb ff ff       	jmp    38ec <_dl_exception_create_format@@GLIBC_PRIVATE+0x4c>
    3d00:	e8 6b fa ff ff       	call   3770 <_dl_debug_state@@GLIBC_PRIVATE+0x1260>
    3d05:	66 66 2e 0f 1f 84 00 	data16 cs nopw 0x0(%rax,%rax,1)
    3d0c:	00 00 00 00 

0000000000003d10 <_dl_exception_free@@GLIBC_PRIVATE>:
    3d10:	f3 0f 1e fa          	endbr64
    3d14:	53                   	push   %rbx
    3d15:	48 89 fb             	mov    %rdi,%rbx
    3d18:	48 8b 7f 10          	mov    0x10(%rdi),%rdi
    3d1c:	ff 15 16 ed 02 00    	call   *0x2ed16(%rip)        # 32a38 <__rseq_size@@GLIBC_2.35+0x1268>
    3d22:	66 0f ef c0          	pxor   %xmm0,%xmm0
    3d26:	48 c7 43 10 00 00 00 	movq   $0x0,0x10(%rbx)
    3d2d:	00 
    3d2e:	0f 11 03             	movups %xmm0,(%rbx)
    3d31:	5b                   	pop    %rbx
    3d32:	c3                   	ret
    3d33:	66 2e 0f 1f 84 00 00 	cs nopw 0x0(%rax,%rax,1)
    3d3a:	00 00 00 
    3d3d:	0f 1f 00             	nopl   (%rax)
    3d40:	f3 0f 1e fa          	endbr64
    3d44:	55                   	push   %rbp
    3d45:	53                   	push   %rbx
    3d46:	48 89 fb             	mov    %rdi,%rbx
    3d49:	48 83 ec 18          	sub    $0x18,%rsp
    3d4d:	48 8b 35 84 ed 02 00 	mov    0x2ed84(%rip),%rsi        # 32ad8 <_rtld_global_ro@@GLIBC_PRIVATE+0x18>
    3d54:	8b 15 66 da 02 00    	mov    0x2da66(%rip),%edx        # 317c0 <__rseq_flags@@GLIBC_2.35+0x4904>
    3d5a:	48 89 f7             	mov    %rsi,%rdi
    3d5d:	48 f7 df             	neg    %rdi
    3d60:	48 23 3b             	and    (%rbx),%rdi
    3d63:	e8 e8 d7 01 00       	call   21550 <_dl_audit_symbind_alt@@GLIBC_PRIVATE+0x9a00>
    3d68:	85 c0                	test   %eax,%eax
    3d6a:	0f 85 f0 00 00 00    	jne    3e60 <_dl_exception_free@@GLIBC_PRIVATE+0x150>
    3d70:	48 c7 03 00 00 00 00 	movq   $0x0,(%rbx)
    3d77:	83 0d da 02 03 00 01 	orl    $0x1,0x302da(%rip)        # 34058 <_rtld_global@@GLIBC_PRIVATE+0x1058>
    3d7e:	31 c0                	xor    %eax,%eax
    3d80:	ba 01 00 00 00       	mov    $0x1,%edx
    3d85:	f0 0f b1 15 53 03 03 	lock cmpxchg %edx,0x30353(%rip)        # 340e0 <_rtld_global@@GLIBC_PRIVATE+0x10e0>
    3d8c:	00 
    3d8d:	0f 85 dd 00 00 00    	jne    3e70 <_dl_exception_free@@GLIBC_PRIVATE+0x160>
    3d93:	48 8b 1d 06 03 03 00 	mov    0x30306(%rip),%rbx        # 340a0 <_rtld_global@@GLIBC_PRIVATE+0x10a0>
    3d9a:	48 8d 2d ff 02 03 00 	lea    0x302ff(%rip),%rbp        # 340a0 <_rtld_global@@GLIBC_PRIVATE+0x10a0>
    3da1:	48 39 eb             	cmp    %rbp,%rbx
    3da4:	75 12                	jne    3db8 <_dl_exception_free@@GLIBC_PRIVATE+0xa8>
    3da6:	eb 58                	jmp    3e00 <_dl_exception_free@@GLIBC_PRIVATE+0xf0>
    3da8:	0f 1f 84 00 00 00 00 	nopl   0x0(%rax,%rax,1)
    3daf:	00 
    3db0:	48 8b 1b             	mov    (%rbx),%rbx
    3db3:	48 39 eb             	cmp    %rbp,%rbx
    3db6:	74 48                	je     3e00 <_dl_exception_free@@GLIBC_PRIVATE+0xf0>
    3db8:	48 8b bb e0 03 00 00 	mov    0x3e0(%rbx),%rdi
    3dbf:	48 8b b3 d8 03 00 00 	mov    0x3d8(%rbx),%rsi
    3dc6:	ba 07 00 00 00       	mov    $0x7,%edx
    3dcb:	48 29 fe             	sub    %rdi,%rsi
    3dce:	48 03 bb d0 03 00 00 	add    0x3d0(%rbx),%rdi
    3dd5:	e8 76 d7 01 00       	call   21550 <_dl_audit_symbind_alt@@GLIBC_PRIVATE+0x9a00>
    3dda:	85 c0                	test   %eax,%eax
    3ddc:	74 d2                	je     3db0 <_dl_exception_free@@GLIBC_PRIVATE+0xa0>
    3dde:	8b 05 ac 04 03 00    	mov    0x304ac(%rip),%eax        # 34290 <__nptl_initial_report_events@@GLIBC_PRIVATE+0xc0>
    3de4:	85 c0                	test   %eax,%eax
    3de6:	74 c8                	je     3db0 <_dl_exception_free@@GLIBC_PRIVATE+0xa0>
    3de8:	31 d2                	xor    %edx,%edx
    3dea:	87 15 f0 02 03 00    	xchg   %edx,0x302f0(%rip)        # 340e0 <_rtld_global@@GLIBC_PRIVATE+0x10e0>
    3df0:	83 fa 01             	cmp    $0x1,%edx
    3df3:	0f 8f 8f 00 00 00    	jg     3e88 <_dl_exception_free@@GLIBC_PRIVATE+0x178>
    3df9:	48 83 c4 18          	add    $0x18,%rsp
    3dfd:	5b                   	pop    %rbx
    3dfe:	5d                   	pop    %rbp
    3dff:	c3                   	ret
    3e00:	48 8b 1d b9 02 03 00 	mov    0x302b9(%rip),%rbx        # 340c0 <_rtld_global@@GLIBC_PRIVATE+0x10c0>
    3e07:	48 8d 2d b2 02 03 00 	lea    0x302b2(%rip),%rbp        # 340c0 <_rtld_global@@GLIBC_PRIVATE+0x10c0>
    3e0e:	48 39 eb             	cmp    %rbp,%rbx
    3e11:	75 0d                	jne    3e20 <_dl_exception_free@@GLIBC_PRIVATE+0x110>
    3e13:	eb 43                	jmp    3e58 <_dl_exception_free@@GLIBC_PRIVATE+0x148>
    3e15:	0f 1f 00             	nopl   (%rax)
    3e18:	48 8b 1b             	mov    (%rbx),%rbx
    3e1b:	48 39 eb             	cmp    %rbp,%rbx
    3e1e:	74 38                	je     3e58 <_dl_exception_free@@GLIBC_PRIVATE+0x148>
    3e20:	48 8b bb e0 03 00 00 	mov    0x3e0(%rbx),%rdi
    3e27:	48 8b b3 d8 03 00 00 	mov    0x3d8(%rbx),%rsi
    3e2e:	ba 07 00 00 00       	mov    $0x7,%edx
    3e33:	48 29 fe             	sub    %rdi,%rsi
    3e36:	48 03 bb d0 03 00 00 	add    0x3d0(%rbx),%rdi
    3e3d:	e8 0e d7 01 00       	call   21550 <_dl_audit_symbind_alt@@GLIBC_PRIVATE+0x9a00>
    3e42:	85 c0                	test   %eax,%eax
    3e44:	74 d2                	je     3e18 <_dl_exception_free@@GLIBC_PRIVATE+0x108>
    3e46:	8b 05 44 04 03 00    	mov    0x30444(%rip),%eax        # 34290 <__nptl_initial_report_events@@GLIBC_PRIVATE+0xc0>
    3e4c:	85 c0                	test   %eax,%eax
    3e4e:	75 98                	jne    3de8 <_dl_exception_free@@GLIBC_PRIVATE+0xd8>
    3e50:	48 8b 1b             	mov    (%rbx),%rbx
    3e53:	48 39 eb             	cmp    %rbp,%rbx
    3e56:	75 c8                	jne    3e20 <_dl_exception_free@@GLIBC_PRIVATE+0x110>
    3e58:	31 c0                	xor    %eax,%eax
    3e5a:	eb 8c                	jmp    3de8 <_dl_exception_free@@GLIBC_PRIVATE+0xd8>
    3e5c:	0f 1f 40 00          	nopl   0x0(%rax)
    3e60:	8b 05 2a 04 03 00    	mov    0x3042a(%rip),%eax        # 34290 <__nptl_initial_report_events@@GLIBC_PRIVATE+0xc0>
    3e66:	85 c0                	test   %eax,%eax
    3e68:	75 8f                	jne    3df9 <_dl_exception_free@@GLIBC_PRIVATE+0xe9>
    3e6a:	e9 0f ff ff ff       	jmp    3d7e <_dl_exception_free@@GLIBC_PRIVATE+0x6e>
    3e6f:	90                   	nop
    3e70:	48 8d 3d 69 02 03 00 	lea    0x30269(%rip),%rdi        # 340e0 <_rtld_global@@GLIBC_PRIVATE+0x10e0>
    3e77:	67 e8 33 d7 01 00    	addr32 call 215b0 <_dl_audit_symbind_alt@@GLIBC_PRIVATE+0x9a60>
    3e7d:	e9 11 ff ff ff       	jmp    3d93 <_dl_exception_free@@GLIBC_PRIVATE+0x83>
    3e82:	66 0f 1f 44 00 00    	nopw   0x0(%rax,%rax,1)
    3e88:	89 44 24 0c          	mov    %eax,0xc(%rsp)
    3e8c:	48 8d 3d 4d 02 03 00 	lea    0x3024d(%rip),%rdi        # 340e0 <_rtld_global@@GLIBC_PRIVATE+0x10e0>
    3e93:	67 e8 d7 d7 01 00    	addr32 call 21670 <_dl_audit_symbind_alt@@GLIBC_PRIVATE+0x9b20>
    3e99:	8b 44 24 0c          	mov    0xc(%rsp),%eax
    3e9d:	e9 57 ff ff ff       	jmp    3df9 <_dl_exception_free@@GLIBC_PRIVATE+0xe9>
    3ea2:	66 66 2e 0f 1f 84 00 	data16 cs nopw 0x0(%rax,%rax,1)
    3ea9:	00 00 00 00 
    3ead:	0f 1f 00             	nopl   (%rax)

0000000000003eb0 <__nptl_change_stack_perm@@GLIBC_PRIVATE>:
    3eb0:	f3 0f 1e fa          	endbr64
    3eb4:	48 89 f8             	mov    %rdi,%rax
    3eb7:	48 83 ec 08          	sub    $0x8,%rsp
    3ebb:	48 8b bf a0 06 00 00 	mov    0x6a0(%rdi),%rdi
    3ec2:	ba 07 00 00 00       	mov    $0x7,%edx
    3ec7:	48 8b b0 98 06 00 00 	mov    0x698(%rax),%rsi
    3ece:	48 29 fe             	sub    %rdi,%rsi
    3ed1:	48 03 b8 90 06 00 00 	add    0x690(%rax),%rdi
    3ed8:	e8 73 d6 01 00       	call   21550 <_dl_audit_symbind_alt@@GLIBC_PRIVATE+0x9a00>
    3edd:	85 c0                	test   %eax,%eax
    3edf:	0f 45 05 aa 03 03 00 	cmovne 0x303aa(%rip),%eax        # 34290 <__nptl_initial_report_events@@GLIBC_PRIVATE+0xc0>
    3ee6:	48 83 c4 08          	add    $0x8,%rsp
    3eea:	c3                   	ret
    3eeb:	0f 1f 44 00 00       	nopl   0x0(%rax,%rax,1)
    3ef0:	48 8b 87 70 03 00 00 	mov    0x370(%rdi),%rax
    3ef7:	48 89 06             	mov    %rax,(%rsi)
    3efa:	48 8b 87 78 03 00 00 	mov    0x378(%rdi),%rax
    3f01:	48 89 46 08          	mov    %rax,0x8(%rsi)
    3f05:	48 89 7e 10          	mov    %rdi,0x10(%rsi)
    3f09:	0f b7 8f d0 02 00 00 	movzwl 0x2d0(%rdi),%ecx
    3f10:	48 8b 87 c0 02 00 00 	mov    0x2c0(%rdi),%rax
    3f17:	48 8d 14 cd 00 00 00 	lea    0x0(,%rcx,8),%rdx
    3f1e:	00 
    3f1f:	48 29 ca             	sub    %rcx,%rdx
    3f22:	48 8d 14 d0          	lea    (%rax,%rdx,8),%rdx
    3f26:	48 39 d0             	cmp    %rdx,%rax
    3f29:	72 0e                	jb     3f39 <__nptl_change_stack_perm@@GLIBC_PRIVATE+0x89>
    3f2b:	eb 23                	jmp    3f50 <__nptl_change_stack_perm@@GLIBC_PRIVATE+0xa0>
    3f2d:	0f 1f 00             	nopl   (%rax)
    3f30:	48 83 c0 38          	add    $0x38,%rax
    3f34:	48 39 d0             	cmp    %rdx,%rax
    3f37:	73 17                	jae    3f50 <__nptl_change_stack_perm@@GLIBC_PRIVATE+0xa0>
    3f39:	81 38 50 e5 74 64    	cmpl   $0x6474e550,(%rax)
    3f3f:	75 ef                	jne    3f30 <__nptl_change_stack_perm@@GLIBC_PRIVATE+0x80>
    3f41:	48 8b 17             	mov    (%rdi),%rdx
    3f44:	48 03 50 10          	add    0x10(%rax),%rdx
    3f48:	48 89 56 18          	mov    %rdx,0x18(%rsi)
    3f4c:	c3                   	ret
    3f4d:	0f 1f 00             	nopl   (%rax)
    3f50:	48 c7 46 18 00 00 00 	movq   $0x0,0x18(%rsi)
    3f57:	00 
    3f58:	c3                   	ret
    3f59:	0f 1f 80 00 00 00 00 	nopl   0x0(%rax)
    3f60:	53                   	push   %rbx
    3f61:	45 31 c9             	xor    %r9d,%r9d
    3f64:	48 83 ec 20          	sub    $0x20,%rsp
    3f68:	4c 8b 05 91 f0 02 00 	mov    0x2f091(%rip),%r8        # 33000 <_rtld_global@@GLIBC_PRIVATE>
    3f6f:	41 f6 80 36 03 00 00 	testb  $0x8,0x336(%r8)
    3f76:	08 
    3f77:	0f 84 e7 00 00 00    	je     4064 <__nptl_change_stack_perm@@GLIBC_PRIVATE+0x1b4>
    3f7d:	48 8b 1d 7c fa 02 00 	mov    0x2fa7c(%rip),%rbx        # 33a00 <_rtld_global@@GLIBC_PRIVATE+0xa00>
    3f84:	48 85 db             	test   %rbx,%rbx
    3f87:	0f 84 9b 00 00 00    	je     4028 <__nptl_change_stack_perm@@GLIBC_PRIVATE+0x178>
    3f8d:	4c 8d 1d 6c f0 02 00 	lea    0x2f06c(%rip),%r11        # 33000 <_rtld_global@@GLIBC_PRIVATE>
    3f94:	45 31 d2             	xor    %r10d,%r10d
    3f97:	31 db                	xor    %ebx,%ebx
    3f99:	0f 1f 80 00 00 00 00 	nopl   0x0(%rax)
    3fa0:	49 8b 3b             	mov    (%r11),%rdi
    3fa3:	48 85 ff             	test   %rdi,%rdi
    3fa6:	75 11                	jne    3fb9 <__nptl_change_stack_perm@@GLIBC_PRIVATE+0x109>
    3fa8:	eb 66                	jmp    4010 <__nptl_change_stack_perm@@GLIBC_PRIVATE+0x160>
    3faa:	66 0f 1f 44 00 00    	nopw   0x0(%rax,%rax,1)
    3fb0:	48 8b 7f 18          	mov    0x18(%rdi),%rdi
    3fb4:	48 85 ff             	test   %rdi,%rdi
    3fb7:	74 57                	je     4010 <__nptl_change_stack_perm@@GLIBC_PRIVATE+0x160>
    3fb9:	49 39 f8             	cmp    %rdi,%r8
    3fbc:	74 f2                	je     3fb0 <__nptl_change_stack_perm@@GLIBC_PRIVATE+0x100>
    3fbe:	48 39 7f 28          	cmp    %rdi,0x28(%rdi)
    3fc2:	75 ec                	jne    3fb0 <__nptl_change_stack_perm@@GLIBC_PRIVATE+0x100>
    3fc4:	0f b6 87 34 03 00 00 	movzbl 0x334(%rdi),%eax
    3fcb:	83 e0 03             	and    $0x3,%eax
    3fce:	3c 01                	cmp    $0x1,%al
    3fd0:	74 6e                	je     4040 <__nptl_change_stack_perm@@GLIBC_PRIVATE+0x190>
    3fd2:	80 bf 37 03 00 00 00 	cmpb   $0x0,0x337(%rdi)
    3fd9:	75 65                	jne    4040 <__nptl_change_stack_perm@@GLIBC_PRIVATE+0x190>
    3fdb:	3c 02                	cmp    $0x2,%al
    3fdd:	75 d1                	jne    3fb0 <__nptl_change_stack_perm@@GLIBC_PRIVATE+0x100>
    3fdf:	48 8b 05 6a 01 03 00 	mov    0x3016a(%rip),%rax        # 34150 <_r_debug@@GLIBC_2.2.5+0x48>
    3fe6:	48 83 c3 01          	add    $0x1,%rbx
    3fea:	48 85 c0             	test   %rax,%rax
    3fed:	74 c1                	je     3fb0 <__nptl_change_stack_perm@@GLIBC_PRIVATE+0x100>
    3fef:	48 89 da             	mov    %rbx,%rdx
    3ff2:	48 c1 e2 05          	shl    $0x5,%rdx
    3ff6:	48 8d 34 10          	lea    (%rax,%rdx,1),%rsi
    3ffa:	e8 f1 fe ff ff       	call   3ef0 <__nptl_change_stack_perm@@GLIBC_PRIVATE+0x40>
    3fff:	48 8b 7f 18          	mov    0x18(%rdi),%rdi
    4003:	48 85 ff             	test   %rdi,%rdi
    4006:	75 b1                	jne    3fb9 <__nptl_change_stack_perm@@GLIBC_PRIVATE+0x109>
    4008:	0f 1f 84 00 00 00 00 	nopl   0x0(%rax,%rax,1)
    400f:	00 
    4010:	49 83 c2 01          	add    $0x1,%r10
    4014:	49 81 c3 a0 00 00 00 	add    $0xa0,%r11
    401b:	4c 3b 15 de f9 02 00 	cmp    0x2f9de(%rip),%r10        # 33a00 <_rtld_global@@GLIBC_PRIVATE+0xa00>
    4022:	0f 82 78 ff ff ff    	jb     3fa0 <__nptl_change_stack_perm@@GLIBC_PRIVATE+0xf0>
    4028:	4c 89 0d 19 d7 02 00 	mov    %r9,0x2d719(%rip)        # 31748 <__rseq_flags@@GLIBC_2.35+0x488c>
    402f:	48 83 c4 20          	add    $0x20,%rsp
    4033:	48 89 d8             	mov    %rbx,%rax
    4036:	5b                   	pop    %rbx
    4037:	c3                   	ret
    4038:	0f 1f 84 00 00 00 00 	nopl   0x0(%rax,%rax,1)
    403f:	00 
    4040:	48 8b 35 f9 d6 02 00 	mov    0x2d6f9(%rip),%rsi        # 31740 <__rseq_flags@@GLIBC_2.35+0x4884>
    4047:	48 85 f6             	test   %rsi,%rsi
    404a:	74 0f                	je     405b <__nptl_change_stack_perm@@GLIBC_PRIVATE+0x1ab>
    404c:	4c 89 c8             	mov    %r9,%rax
    404f:	48 c1 e0 05          	shl    $0x5,%rax
    4053:	48 01 c6             	add    %rax,%rsi
    4056:	e8 95 fe ff ff       	call   3ef0 <__nptl_change_stack_perm@@GLIBC_PRIVATE+0x40>
    405b:	49 83 c1 01          	add    $0x1,%r9
    405f:	e9 4c ff ff ff       	jmp    3fb0 <__nptl_change_stack_perm@@GLIBC_PRIVATE+0x100>
    4064:	48 89 e6             	mov    %rsp,%rsi
    4067:	4c 89 c7             	mov    %r8,%rdi
    406a:	e8 81 fe ff ff       	call   3ef0 <__nptl_change_stack_perm@@GLIBC_PRIVATE+0x40>
    406f:	41 0f b7 88 d0 02 00 	movzwl 0x2d0(%r8),%ecx
    4076:	00 
    4077:	49 8b 80 c0 02 00 00 	mov    0x2c0(%r8),%rax
    407e:	48 8d 14 cd 00 00 00 	lea    0x0(,%rcx,8),%rdx
    4085:	00 
    4086:	48 29 ca             	sub    %rcx,%rdx
    4089:	48 8d 34 d0          	lea    (%rax,%rdx,8),%rsi
    408d:	48 39 f0             	cmp    %rsi,%rax
    4090:	0f 83 e7 fe ff ff    	jae    3f7d <__nptl_change_stack_perm@@GLIBC_PRIVATE+0xcd>
    4096:	48 8b 3d a3 d6 02 00 	mov    0x2d6a3(%rip),%rdi        # 31740 <__rseq_flags@@GLIBC_2.35+0x4884>
    409d:	eb 0e                	jmp    40ad <__nptl_change_stack_perm@@GLIBC_PRIVATE+0x1fd>
    409f:	90                   	nop
    40a0:	48 83 c0 38          	add    $0x38,%rax
    40a4:	48 39 f0             	cmp    %rsi,%rax
    40a7:	0f 83 d0 fe ff ff    	jae    3f7d <__nptl_change_stack_perm@@GLIBC_PRIVATE+0xcd>
    40ad:	83 38 01             	cmpl   $0x1,(%rax)
    40b0:	75 ee                	jne    40a0 <__nptl_change_stack_perm@@GLIBC_PRIVATE+0x1f0>
    40b2:	48 85 ff             	test   %rdi,%rdi
    40b5:	74 2e                	je     40e5 <__nptl_change_stack_perm@@GLIBC_PRIVATE+0x235>
    40b7:	4c 89 ca             	mov    %r9,%rdx
    40ba:	66 0f 6f 04 24       	movdqa (%rsp),%xmm0
    40bf:	49 8b 08             	mov    (%r8),%rcx
    40c2:	48 c1 e2 05          	shl    $0x5,%rdx
    40c6:	48 01 fa             	add    %rdi,%rdx
    40c9:	0f 11 02             	movups %xmm0,(%rdx)
    40cc:	66 0f 6f 4c 24 10    	movdqa 0x10(%rsp),%xmm1
    40d2:	0f 11 4a 10          	movups %xmm1,0x10(%rdx)
    40d6:	48 03 48 10          	add    0x10(%rax),%rcx
    40da:	48 89 0a             	mov    %rcx,(%rdx)
    40dd:	48 03 48 28          	add    0x28(%rax),%rcx
    40e1:	48 89 4a 08          	mov    %rcx,0x8(%rdx)
    40e5:	49 83 c1 01          	add    $0x1,%r9
    40e9:	eb b5                	jmp    40a0 <__nptl_change_stack_perm@@GLIBC_PRIVATE+0x1f0>
    40eb:	0f 1f 44 00 00       	nopl   0x0(%rax,%rax,1)
    40f0:	f3 0f 1e fa          	endbr64
    40f4:	41 56                	push   %r14
    40f6:	41 55                	push   %r13
    40f8:	41 54                	push   %r12
    40fa:	55                   	push   %rbp
    40fb:	48 89 f5             	mov    %rsi,%rbp
    40fe:	53                   	push   %rbx
    40ff:	48 89 fb             	mov    %rdi,%rbx
    4102:	48 83 ec 20          	sub    $0x20,%rsp
    4106:	48 8b 05 5b d6 02 00 	mov    0x2d65b(%rip),%rax        # 31768 <__rseq_flags@@GLIBC_2.35+0x48ac>
    410d:	48 85 c0             	test   %rax,%rax
    4110:	0f 84 23 02 00 00    	je     4339 <__nptl_change_stack_perm@@GLIBC_PRIVATE+0x489>
    4116:	48 8b 15 43 d6 02 00 	mov    0x2d643(%rip),%rdx        # 31760 <__rseq_flags@@GLIBC_2.35+0x48a4>
    411d:	48 39 d7             	cmp    %rdx,%rdi
    4120:	72 09                	jb     412b <__nptl_change_stack_perm@@GLIBC_PRIVATE+0x27b>
    4122:	48 39 c7             	cmp    %rax,%rdi
    4125:	0f 82 da 01 00 00    	jb     4305 <__nptl_change_stack_perm@@GLIBC_PRIVATE+0x455>
    412b:	48 8b 05 0e d6 02 00 	mov    0x2d60e(%rip),%rax        # 31740 <__rseq_flags@@GLIBC_2.35+0x4884>
    4132:	48 3b 18             	cmp    (%rax),%rbx
    4135:	0f 83 3d 01 00 00    	jae    4278 <__nptl_change_stack_perm@@GLIBC_PRIVATE+0x3c8>
    413b:	4c 8d 0d 0e 00 03 00 	lea    0x3000e(%rip),%r9        # 34150 <_r_debug@@GLIBC_2.2.5+0x48>
    4142:	66 0f 1f 44 00 00    	nopw   0x0(%rax,%rax,1)
    4148:	4c 8b 05 f1 ff 02 00 	mov    0x2fff1(%rip),%r8        # 34140 <_r_debug@@GLIBC_2.2.5+0x38>
    414f:	4c 89 c0             	mov    %r8,%rax
    4152:	83 e0 01             	and    $0x1,%eax
    4155:	49 8b 04 c1          	mov    (%r9,%rax,8),%rax
    4159:	48 85 c0             	test   %rax,%rax
    415c:	75 17                	jne    4175 <__nptl_change_stack_perm@@GLIBC_PRIVATE+0x2c5>
    415e:	eb 1e                	jmp    417e <__nptl_change_stack_perm@@GLIBC_PRIVATE+0x2ce>
    4160:	48 8b 48 20          	mov    0x20(%rax),%rcx
    4164:	48 8d 70 20          	lea    0x20(%rax),%rsi
    4168:	48 39 cb             	cmp    %rcx,%rbx
    416b:	73 33                	jae    41a0 <__nptl_change_stack_perm@@GLIBC_PRIVATE+0x2f0>
    416d:	48 8b 00             	mov    (%rax),%rax
    4170:	48 85 c0             	test   %rax,%rax
    4173:	74 09                	je     417e <__nptl_change_stack_perm@@GLIBC_PRIVATE+0x2ce>
    4175:	48 8b 50 10          	mov    0x10(%rax),%rdx
    4179:	48 85 d2             	test   %rdx,%rdx
    417c:	75 e2                	jne    4160 <__nptl_change_stack_perm@@GLIBC_PRIVATE+0x2b0>
    417e:	48 8b 05 bb ff 02 00 	mov    0x2ffbb(%rip),%rax        # 34140 <_r_debug@@GLIBC_2.2.5+0x38>
    4185:	49 39 c0             	cmp    %rax,%r8
    4188:	75 be                	jne    4148 <__nptl_change_stack_perm@@GLIBC_PRIVATE+0x298>
    418a:	b8 ff ff ff ff       	mov    $0xffffffff,%eax
    418f:	48 83 c4 20          	add    $0x20,%rsp
    4193:	5b                   	pop    %rbx
    4194:	5d                   	pop    %rbp
    4195:	41 5c                	pop    %r12
    4197:	41 5d                	pop    %r13
    4199:	41 5e                	pop    %r14
    419b:	c3                   	ret
    419c:	0f 1f 40 00          	nopl   0x0(%rax)
    41a0:	49 89 d2             	mov    %rdx,%r10
    41a3:	49 c1 e2 05          	shl    $0x5,%r10
    41a7:	49 01 f2             	add    %rsi,%r10
    41aa:	eb 14                	jmp    41c0 <__nptl_change_stack_perm@@GLIBC_PRIVATE+0x310>
    41ac:	0f 1f 40 00          	nopl   0x0(%rax)
    41b0:	48 83 ea 01          	sub    $0x1,%rdx
    41b4:	48 8d 70 20          	lea    0x20(%rax),%rsi
    41b8:	48 29 ca             	sub    %rcx,%rdx
    41bb:	48 85 d2             	test   %rdx,%rdx
    41be:	74 20                	je     41e0 <__nptl_change_stack_perm@@GLIBC_PRIVATE+0x330>
    41c0:	48 89 d1             	mov    %rdx,%rcx
    41c3:	48 d1 e9             	shr    $1,%rcx
    41c6:	48 89 c8             	mov    %rcx,%rax
    41c9:	48 c1 e0 05          	shl    $0x5,%rax
    41cd:	48 01 f0             	add    %rsi,%rax
    41d0:	48 8b 38             	mov    (%rax),%rdi
    41d3:	48 39 df             	cmp    %rbx,%rdi
    41d6:	72 d8                	jb     41b0 <__nptl_change_stack_perm@@GLIBC_PRIVATE+0x300>
    41d8:	48 89 ca             	mov    %rcx,%rdx
    41db:	48 85 d2             	test   %rdx,%rdx
    41de:	75 e0                	jne    41c0 <__nptl_change_stack_perm@@GLIBC_PRIVATE+0x310>
    41e0:	4c 39 d6             	cmp    %r10,%rsi
    41e3:	74 08                	je     41ed <__nptl_change_stack_perm@@GLIBC_PRIVATE+0x33d>
    41e5:	48 8b 06             	mov    (%rsi),%rax
    41e8:	48 39 c3             	cmp    %rax,%rbx
    41eb:	74 61                	je     424e <__nptl_change_stack_perm@@GLIBC_PRIVATE+0x39e>
    41ed:	48 8b 46 e8          	mov    -0x18(%rsi),%rax
    41f1:	48 39 c3             	cmp    %rax,%rbx
    41f4:	73 88                	jae    417e <__nptl_change_stack_perm@@GLIBC_PRIVATE+0x2ce>
    41f6:	48 83 ee 20          	sub    $0x20,%rsi
    41fa:	48 8b 06             	mov    (%rsi),%rax
    41fd:	48 89 04 24          	mov    %rax,(%rsp)
    4201:	48 8b 46 08          	mov    0x8(%rsi),%rax
    4205:	48 89 44 24 08       	mov    %rax,0x8(%rsp)
    420a:	48 8b 46 10          	mov    0x10(%rsi),%rax
    420e:	48 89 44 24 10       	mov    %rax,0x10(%rsp)
    4213:	48 8b 46 18          	mov    0x18(%rsi),%rax
    4217:	48 89 44 24 18       	mov    %rax,0x18(%rsp)
    421c:	48 8b 05 1d ff 02 00 	mov    0x2ff1d(%rip),%rax        # 34140 <_r_debug@@GLIBC_2.2.5+0x38>
    4223:	49 39 c0             	cmp    %rax,%r8
    4226:	0f 85 1c ff ff ff    	jne    4148 <__nptl_change_stack_perm@@GLIBC_PRIVATE+0x298>
    422c:	66 0f 6f 3c 24       	movdqa (%rsp),%xmm7
    4231:	66 0f 6f 4c 24 10    	movdqa 0x10(%rsp),%xmm1
    4237:	48 c7 45 00 00 00 00 	movq   $0x0,0x0(%rbp)
    423e:	00 
    423f:	31 c0                	xor    %eax,%eax
    4241:	0f 11 7d 08          	movups %xmm7,0x8(%rbp)
    4245:	0f 11 4d 18          	movups %xmm1,0x18(%rbp)
    4249:	e9 41 ff ff ff       	jmp    418f <__nptl_change_stack_perm@@GLIBC_PRIVATE+0x2df>
    424e:	48 8b 46 08          	mov    0x8(%rsi),%rax
    4252:	48 39 c3             	cmp    %rax,%rbx
    4255:	0f 83 23 ff ff ff    	jae    417e <__nptl_change_stack_perm@@GLIBC_PRIVATE+0x2ce>
    425b:	48 85 f6             	test   %rsi,%rsi
    425e:	75 9a                	jne    41fa <__nptl_change_stack_perm@@GLIBC_PRIVATE+0x34a>
    4260:	48 8b 05 d9 fe 02 00 	mov    0x2fed9(%rip),%rax        # 34140 <_r_debug@@GLIBC_2.2.5+0x38>
    4267:	49 39 c0             	cmp    %rax,%r8
    426a:	0f 85 d8 fe ff ff    	jne    4148 <__nptl_change_stack_perm@@GLIBC_PRIVATE+0x298>
    4270:	e9 15 ff ff ff       	jmp    418a <__nptl_change_stack_perm@@GLIBC_PRIVATE+0x2da>
    4275:	0f 1f 00             	nopl   (%rax)
    4278:	48 3b 1d d1 d4 02 00 	cmp    0x2d4d1(%rip),%rbx        # 31750 <__rseq_flags@@GLIBC_2.35+0x4894>
    427f:	0f 83 b6 fe ff ff    	jae    413b <__nptl_change_stack_perm@@GLIBC_PRIVATE+0x28b>
    4285:	48 8b 15 bc d4 02 00 	mov    0x2d4bc(%rip),%rdx        # 31748 <__rseq_flags@@GLIBC_2.35+0x488c>
    428c:	49 89 d0             	mov    %rdx,%r8
    428f:	49 c1 e0 05          	shl    $0x5,%r8
    4293:	49 01 c0             	add    %rax,%r8
    4296:	48 85 d2             	test   %rdx,%rdx
    4299:	74 28                	je     42c3 <__nptl_change_stack_perm@@GLIBC_PRIVATE+0x413>
    429b:	48 89 d6             	mov    %rdx,%rsi
    429e:	48 d1 ee             	shr    $1,%rsi
    42a1:	48 89 f1             	mov    %rsi,%rcx
    42a4:	48 c1 e1 05          	shl    $0x5,%rcx
    42a8:	48 01 c1             	add    %rax,%rcx
    42ab:	48 8b 39             	mov    (%rcx),%rdi
    42ae:	48 39 df             	cmp    %rbx,%rdi
    42b1:	73 7e                	jae    4331 <__nptl_change_stack_perm@@GLIBC_PRIVATE+0x481>
    42b3:	48 83 ea 01          	sub    $0x1,%rdx
    42b7:	48 8d 41 20          	lea    0x20(%rcx),%rax
    42bb:	48 29 f2             	sub    %rsi,%rdx
    42be:	48 85 d2             	test   %rdx,%rdx
    42c1:	75 d8                	jne    429b <__nptl_change_stack_perm@@GLIBC_PRIVATE+0x3eb>
    42c3:	49 39 c0             	cmp    %rax,%r8
    42c6:	74 0c                	je     42d4 <__nptl_change_stack_perm@@GLIBC_PRIVATE+0x424>
    42c8:	48 8b 10             	mov    (%rax),%rdx
    42cb:	48 39 d3             	cmp    %rdx,%rbx
    42ce:	0f 84 18 01 00 00    	je     43ec <__nptl_change_stack_perm@@GLIBC_PRIVATE+0x53c>
    42d4:	48 8b 50 e8          	mov    -0x18(%rax),%rdx
    42d8:	48 39 d3             	cmp    %rdx,%rbx
    42db:	0f 83 5a fe ff ff    	jae    413b <__nptl_change_stack_perm@@GLIBC_PRIVATE+0x28b>
    42e1:	48 83 e8 20          	sub    $0x20,%rax
    42e5:	f3 0f 6f 28          	movdqu (%rax),%xmm5
    42e9:	48 c7 45 00 00 00 00 	movq   $0x0,0x0(%rbp)
    42f0:	00 
    42f1:	0f 11 6d 08          	movups %xmm5,0x8(%rbp)
    42f5:	f3 0f 6f 70 10       	movdqu 0x10(%rax),%xmm6
    42fa:	31 c0                	xor    %eax,%eax
    42fc:	0f 11 75 18          	movups %xmm6,0x18(%rbp)
    4300:	e9 8a fe ff ff       	jmp    418f <__nptl_change_stack_perm@@GLIBC_PRIVATE+0x2df>
    4305:	66 48 0f 6e d8       	movq   %rax,%xmm3
    430a:	66 48 0f 6e c2       	movq   %rdx,%xmm0
    430f:	48 c7 06 00 00 00 00 	movq   $0x0,(%rsi)
    4316:	31 c0                	xor    %eax,%eax
    4318:	66 0f 6c c3          	punpcklqdq %xmm3,%xmm0
    431c:	0f 11 46 08          	movups %xmm0,0x8(%rsi)
    4320:	66 0f 6f 25 48 d4 02 	movdqa 0x2d448(%rip),%xmm4        # 31770 <__rseq_flags@@GLIBC_2.35+0x48b4>
    4327:	00 
    4328:	0f 11 66 18          	movups %xmm4,0x18(%rsi)
    432c:	e9 5e fe ff ff       	jmp    418f <__nptl_change_stack_perm@@GLIBC_PRIVATE+0x2df>
    4331:	48 89 f2             	mov    %rsi,%rdx
    4334:	e9 5d ff ff ff       	jmp    4296 <__nptl_change_stack_perm@@GLIBC_PRIVATE+0x3e6>
    4339:	45 31 ed             	xor    %r13d,%r13d
    433c:	48 83 3d bc f6 02 00 	cmpq   $0x0,0x2f6bc(%rip)        # 33a00 <_rtld_global@@GLIBC_PRIVATE+0xa00>
    4343:	00 
    4344:	4c 8d 35 b5 ec 02 00 	lea    0x2ecb5(%rip),%r14        # 33000 <_rtld_global@@GLIBC_PRIVATE>
    434b:	0f 84 39 fe ff ff    	je     418a <__nptl_change_stack_perm@@GLIBC_PRIVATE+0x2da>
    4351:	4d 8b 26             	mov    (%r14),%r12
    4354:	4d 85 e4             	test   %r12,%r12
    4357:	74 3f                	je     4398 <__nptl_change_stack_perm@@GLIBC_PRIVATE+0x4e8>
    4359:	0f 1f 80 00 00 00 00 	nopl   0x0(%rax)
    4360:	49 3b 9c 24 70 03 00 	cmp    0x370(%r12),%rbx
    4367:	00 
    4368:	72 24                	jb     438e <__nptl_change_stack_perm@@GLIBC_PRIVATE+0x4de>
    436a:	49 3b 9c 24 78 03 00 	cmp    0x378(%r12),%rbx
    4371:	00 
    4372:	73 1a                	jae    438e <__nptl_change_stack_perm@@GLIBC_PRIVATE+0x4de>
    4374:	41 f6 84 24 36 03 00 	testb  $0x8,0x336(%r12)
    437b:	00 08 
    437d:	75 39                	jne    43b8 <__nptl_change_stack_perm@@GLIBC_PRIVATE+0x508>
    437f:	48 89 de             	mov    %rbx,%rsi
    4382:	4c 89 e7             	mov    %r12,%rdi
    4385:	e8 46 cb 01 00       	call   20ed0 <_dl_audit_symbind_alt@@GLIBC_PRIVATE+0x9380>
    438a:	85 c0                	test   %eax,%eax
    438c:	75 2a                	jne    43b8 <__nptl_change_stack_perm@@GLIBC_PRIVATE+0x508>
    438e:	4d 8b 64 24 18       	mov    0x18(%r12),%r12
    4393:	4d 85 e4             	test   %r12,%r12
    4396:	75 c8                	jne    4360 <__nptl_change_stack_perm@@GLIBC_PRIVATE+0x4b0>
    4398:	49 83 c5 01          	add    $0x1,%r13
    439c:	49 81 c6 a0 00 00 00 	add    $0xa0,%r14
    43a3:	4c 3b 2d 56 f6 02 00 	cmp    0x2f656(%rip),%r13        # 33a00 <_rtld_global@@GLIBC_PRIVATE+0xa00>
    43aa:	72 a5                	jb     4351 <__nptl_change_stack_perm@@GLIBC_PRIVATE+0x4a1>
    43ac:	e9 d9 fd ff ff       	jmp    418a <__nptl_change_stack_perm@@GLIBC_PRIVATE+0x2da>
    43b1:	0f 1f 80 00 00 00 00 	nopl   0x0(%rax)
    43b8:	4d 39 6c 24 30       	cmp    %r13,0x30(%r12)
    43bd:	75 48                	jne    4407 <__nptl_change_stack_perm@@GLIBC_PRIVATE+0x557>
    43bf:	48 89 e6             	mov    %rsp,%rsi
    43c2:	4c 89 e7             	mov    %r12,%rdi
    43c5:	e8 26 fb ff ff       	call   3ef0 <__nptl_change_stack_perm@@GLIBC_PRIVATE+0x40>
    43ca:	66 0f 6f 0c 24       	movdqa (%rsp),%xmm1
    43cf:	66 0f 6f 54 24 10    	movdqa 0x10(%rsp),%xmm2
    43d5:	31 c0                	xor    %eax,%eax
    43d7:	48 c7 45 00 00 00 00 	movq   $0x0,0x0(%rbp)
    43de:	00 
    43df:	0f 11 4d 08          	movups %xmm1,0x8(%rbp)
    43e3:	0f 11 55 18          	movups %xmm2,0x18(%rbp)
    43e7:	e9 a3 fd ff ff       	jmp    418f <__nptl_change_stack_perm@@GLIBC_PRIVATE+0x2df>
    43ec:	48 8b 50 08          	mov    0x8(%rax),%rdx
    43f0:	48 85 c0             	test   %rax,%rax
    43f3:	0f 84 42 fd ff ff    	je     413b <__nptl_change_stack_perm@@GLIBC_PRIVATE+0x28b>
    43f9:	48 39 d3             	cmp    %rdx,%rbx
    43fc:	0f 82 e3 fe ff ff    	jb     42e5 <__nptl_change_stack_perm@@GLIBC_PRIVATE+0x435>
    4402:	e9 34 fd ff ff       	jmp    413b <__nptl_change_stack_perm@@GLIBC_PRIVATE+0x28b>
    4407:	48 8d 0d 42 5a 02 00 	lea    0x25a42(%rip),%rcx        # 29e50 <__rtld_version_placeholder@GLIBC_2.34+0x35e0>
    440e:	ba 2d 00 00 00       	mov    $0x2d,%edx
    4413:	48 8d 35 27 46 02 00 	lea    0x24627(%rip),%rsi        # 28a41 <__rtld_version_placeholder@GLIBC_2.34+0x21d1>
    441a:	48 8d 3d 31 46 02 00 	lea    0x24631(%rip),%rdi        # 28a52 <__rtld_version_placeholder@GLIBC_2.34+0x21e2>
    4421:	e8 8a 55 01 00       	call   199b0 <_dl_audit_symbind_alt@@GLIBC_PRIVATE+0x1e60>
    4426:	66 2e 0f 1f 84 00 00 	cs nopw 0x0(%rax,%rax,1)
    442d:	00 00 00 
    4430:	f3 0f 1e fa          	endbr64
    4434:	48 83 fe 01          	cmp    $0x1,%rsi
    4438:	0f 86 8a 00 00 00    	jbe    44c8 <__nptl_change_stack_perm@@GLIBC_PRIVATE+0x618>
    443e:	4c 8d 5e ff          	lea    -0x1(%rsi),%r11
    4442:	49 89 f9             	mov    %rdi,%r9
    4445:	45 31 d2             	xor    %r10d,%r10d
    4448:	0f 1f 84 00 00 00 00 	nopl   0x0(%rax,%rax,1)
    444f:	00 
    4450:	4d 89 d0             	mov    %r10,%r8
    4453:	49 83 c2 01          	add    $0x1,%r10
    4457:	49 8b 09             	mov    (%r9),%rcx
    445a:	49 39 f2             	cmp    %rsi,%r10
    445d:	73 71                	jae    44d0 <__nptl_change_stack_perm@@GLIBC_PRIVATE+0x620>
    445f:	4c 89 d0             	mov    %r10,%rax
    4462:	66 0f 1f 44 00 00    	nopw   0x0(%rax,%rax,1)
    4468:	48 89 c2             	mov    %rax,%rdx
    446b:	48 c1 e2 05          	shl    $0x5,%rdx
    446f:	48 8b 14 17          	mov    (%rdi,%rdx,1),%rdx
    4473:	48 39 ca             	cmp    %rcx,%rdx
    4476:	73 06                	jae    447e <__nptl_change_stack_perm@@GLIBC_PRIVATE+0x5ce>
    4478:	48 89 d1             	mov    %rdx,%rcx
    447b:	49 89 c0             	mov    %rax,%r8
    447e:	48 83 c0 01          	add    $0x1,%rax
    4482:	48 39 c6             	cmp    %rax,%rsi
    4485:	75 e1                	jne    4468 <__nptl_change_stack_perm@@GLIBC_PRIVATE+0x5b8>
    4487:	49 c1 e0 05          	shl    $0x5,%r8
    448b:	49 01 f8             	add    %rdi,%r8
    448e:	49 8b 08             	mov    (%r8),%rcx
    4491:	f3 41 0f 6f 11       	movdqu (%r9),%xmm2
    4496:	66 48 0f 6e c1       	movq   %rcx,%xmm0
    449b:	f3 41 0f 6f 48 10    	movdqu 0x10(%r8),%xmm1
    44a1:	49 83 c1 20          	add    $0x20,%r9
    44a5:	41 0f 16 40 08       	movhps 0x8(%r8),%xmm0
    44aa:	41 0f 11 10          	movups %xmm2,(%r8)
    44ae:	f3 41 0f 6f 59 f0    	movdqu -0x10(%r9),%xmm3
    44b4:	41 0f 11 58 10       	movups %xmm3,0x10(%r8)
    44b9:	41 0f 11 41 e0       	movups %xmm0,-0x20(%r9)
    44be:	41 0f 11 49 f0       	movups %xmm1,-0x10(%r9)
    44c3:	4d 39 d3             	cmp    %r10,%r11
    44c6:	75 88                	jne    4450 <__nptl_change_stack_perm@@GLIBC_PRIVATE+0x5a0>
    44c8:	c3                   	ret
    44c9:	0f 1f 80 00 00 00 00 	nopl   0x0(%rax)
    44d0:	4d 89 c8             	mov    %r9,%r8
    44d3:	eb bc                	jmp    4491 <__nptl_change_stack_perm@@GLIBC_PRIVATE+0x5e1>
    44d5:	66 66 2e 0f 1f 84 00 	data16 cs nopw 0x0(%rax,%rax,1)
    44dc:	00 00 00 00 
    44e0:	f3 0f 1e fa          	endbr64
    44e4:	55                   	push   %rbp
    44e5:	53                   	push   %rbx
    44e6:	48 83 ec 08          	sub    $0x8,%rsp
    44ea:	48 8b 3d 0f eb 02 00 	mov    0x2eb0f(%rip),%rdi        # 33000 <_rtld_global@@GLIBC_PRIVATE>
    44f1:	f6 87 36 03 00 00 08 	testb  $0x8,0x336(%rdi)
    44f8:	0f 85 f2 00 00 00    	jne    45f0 <__nptl_change_stack_perm@@GLIBC_PRIVATE+0x740>
    44fe:	66 0f 76 c0          	pcmpeqd %xmm0,%xmm0
    4502:	0f 29 05 57 d2 02 00 	movaps %xmm0,0x2d257(%rip)        # 31760 <__rseq_flags@@GLIBC_2.35+0x48a4>
    4509:	e8 52 fa ff ff       	call   3f60 <__nptl_change_stack_perm@@GLIBC_PRIVATE+0xb0>
    450e:	48 8b 3d 33 d2 02 00 	mov    0x2d233(%rip),%rdi        # 31748 <__rseq_flags@@GLIBC_2.35+0x488c>
    4515:	48 89 c3             	mov    %rax,%rbx
    4518:	48 c1 e7 05          	shl    $0x5,%rdi
    451c:	ff 15 0e e5 02 00    	call   *0x2e50e(%rip)        # 32a30 <__rseq_size@@GLIBC_2.35+0x1260>
    4522:	48 89 05 17 d2 02 00 	mov    %rax,0x2d217(%rip)        # 31740 <__rseq_flags@@GLIBC_2.35+0x4884>
    4529:	48 89 c5             	mov    %rax,%rbp
    452c:	48 85 db             	test   %rbx,%rbx
    452f:	75 37                	jne    4568 <__nptl_change_stack_perm@@GLIBC_PRIVATE+0x6b8>
    4531:	48 85 c0             	test   %rax,%rax
    4534:	0f 84 11 01 00 00    	je     464b <__nptl_change_stack_perm@@GLIBC_PRIVATE+0x79b>
    453a:	48 c7 05 03 d2 02 00 	movq   $0x0,0x2d203(%rip)        # 31748 <__rseq_flags@@GLIBC_2.35+0x488c>
    4541:	00 00 00 00 
    4545:	e8 16 fa ff ff       	call   3f60 <__nptl_change_stack_perm@@GLIBC_PRIVATE+0xb0>
    454a:	48 8b 35 f7 d1 02 00 	mov    0x2d1f7(%rip),%rsi        # 31748 <__rseq_flags@@GLIBC_2.35+0x488c>
    4551:	48 85 f6             	test   %rsi,%rsi
    4554:	0f 85 ae 00 00 00    	jne    4608 <__nptl_change_stack_perm@@GLIBC_PRIVATE+0x758>
    455a:	48 83 c4 08          	add    $0x8,%rsp
    455e:	5b                   	pop    %rbx
    455f:	5d                   	pop    %rbp
    4560:	c3                   	ret
    4561:	0f 1f 80 00 00 00 00 	nopl   0x0(%rax)
    4568:	b8 3f 00 00 00       	mov    $0x3f,%eax
    456d:	48 39 c3             	cmp    %rax,%rbx
    4570:	48 0f 42 d8          	cmovb  %rax,%rbx
    4574:	48 8d 7b 01          	lea    0x1(%rbx),%rdi
    4578:	48 c1 e7 05          	shl    $0x5,%rdi
    457c:	ff 15 ae e4 02 00    	call   *0x2e4ae(%rip)        # 32a30 <__rseq_size@@GLIBC_2.35+0x1260>
    4582:	48 85 c0             	test   %rax,%rax
    4585:	0f 84 b5 00 00 00    	je     4640 <__nptl_change_stack_perm@@GLIBC_PRIVATE+0x790>
    458b:	48 89 58 18          	mov    %rbx,0x18(%rax)
    458f:	48 8b 1d aa d1 02 00 	mov    0x2d1aa(%rip),%rbx        # 31740 <__rseq_flags@@GLIBC_2.35+0x4884>
    4596:	66 0f ef c0          	pxor   %xmm0,%xmm0
    459a:	0f 11 00             	movups %xmm0,(%rax)
    459d:	48 c7 40 10 00 00 00 	movq   $0x0,0x10(%rax)
    45a4:	00 
    45a5:	48 89 05 a4 fb 02 00 	mov    %rax,0x2fba4(%rip)        # 34150 <_r_debug@@GLIBC_2.2.5+0x48>
    45ac:	48 85 db             	test   %rbx,%rbx
    45af:	0f 84 96 00 00 00    	je     464b <__nptl_change_stack_perm@@GLIBC_PRIVATE+0x79b>
    45b5:	48 c7 05 88 d1 02 00 	movq   $0x0,0x2d188(%rip)        # 31748 <__rseq_flags@@GLIBC_2.35+0x488c>
    45bc:	00 00 00 00 
    45c0:	e8 9b f9 ff ff       	call   3f60 <__nptl_change_stack_perm@@GLIBC_PRIVATE+0xb0>
    45c5:	48 8b 35 7c d1 02 00 	mov    0x2d17c(%rip),%rsi        # 31748 <__rseq_flags@@GLIBC_2.35+0x488c>
    45cc:	48 85 f6             	test   %rsi,%rsi
    45cf:	0f 85 8b 00 00 00    	jne    4660 <__nptl_change_stack_perm@@GLIBC_PRIVATE+0x7b0>
    45d5:	48 8b 3d 74 fb 02 00 	mov    0x2fb74(%rip),%rdi        # 34150 <_r_debug@@GLIBC_2.2.5+0x48>
    45dc:	48 8b 77 10          	mov    0x10(%rdi),%rsi
    45e0:	48 83 c4 08          	add    $0x8,%rsp
    45e4:	48 83 c7 20          	add    $0x20,%rdi
    45e8:	5b                   	pop    %rbx
    45e9:	5d                   	pop    %rbp
    45ea:	e9 41 fe ff ff       	jmp    4430 <__nptl_change_stack_perm@@GLIBC_PRIVATE+0x580>
    45ef:	90                   	nop
    45f0:	48 8d 35 69 d1 02 00 	lea    0x2d169(%rip),%rsi        # 31760 <__rseq_flags@@GLIBC_2.35+0x48a4>
    45f7:	e8 f4 f8 ff ff       	call   3ef0 <__nptl_change_stack_perm@@GLIBC_PRIVATE+0x40>
    45fc:	e9 08 ff ff ff       	jmp    4509 <__nptl_change_stack_perm@@GLIBC_PRIVATE+0x659>
    4601:	0f 1f 80 00 00 00 00 	nopl   0x0(%rax)
    4608:	48 89 ef             	mov    %rbp,%rdi
    460b:	67 e8 1f fe ff ff    	addr32 call 4430 <__nptl_change_stack_perm@@GLIBC_PRIVATE+0x580>
    4611:	48 8b 05 30 d1 02 00 	mov    0x2d130(%rip),%rax        # 31748 <__rseq_flags@@GLIBC_2.35+0x488c>
    4618:	48 83 e8 01          	sub    $0x1,%rax
    461c:	48 c1 e0 05          	shl    $0x5,%rax
    4620:	48 03 05 19 d1 02 00 	add    0x2d119(%rip),%rax        # 31740 <__rseq_flags@@GLIBC_2.35+0x4884>
    4627:	48 8b 40 08          	mov    0x8(%rax),%rax
    462b:	48 89 05 1e d1 02 00 	mov    %rax,0x2d11e(%rip)        # 31750 <__rseq_flags@@GLIBC_2.35+0x4894>
    4632:	e9 23 ff ff ff       	jmp    455a <__nptl_change_stack_perm@@GLIBC_PRIVATE+0x6aa>
    4637:	66 0f 1f 84 00 00 00 	nopw   0x0(%rax,%rax,1)
    463e:	00 00 
    4640:	48 c7 05 05 fb 02 00 	movq   $0x0,0x2fb05(%rip)        # 34150 <_r_debug@@GLIBC_2.2.5+0x48>
    4647:	00 00 00 00 
    464b:	48 8d 3d e6 5f 02 00 	lea    0x25fe6(%rip),%rdi        # 2a638 <__rtld_version_placeholder@GLIBC_2.34+0x3dc8>
    4652:	31 c0                	xor    %eax,%eax
    4654:	e8 d7 8e 00 00       	call   d530 <_dl_fatal_printf@@GLIBC_PRIVATE>
    4659:	0f 1f 80 00 00 00 00 	nopl   0x0(%rax)
    4660:	48 89 df             	mov    %rbx,%rdi
    4663:	67 e8 c7 fd ff ff    	addr32 call 4430 <__nptl_change_stack_perm@@GLIBC_PRIVATE+0x580>
    4669:	48 8b 05 d8 d0 02 00 	mov    0x2d0d8(%rip),%rax        # 31748 <__rseq_flags@@GLIBC_2.35+0x488c>
    4670:	48 83 e8 01          	sub    $0x1,%rax
    4674:	48 c1 e0 05          	shl    $0x5,%rax
    4678:	48 03 05 c1 d0 02 00 	add    0x2d0c1(%rip),%rax        # 31740 <__rseq_flags@@GLIBC_2.35+0x4884>
    467f:	48 8b 40 08          	mov    0x8(%rax),%rax
    4683:	48 89 05 c6 d0 02 00 	mov    %rax,0x2d0c6(%rip)        # 31750 <__rseq_flags@@GLIBC_2.35+0x4894>
    468a:	e9 46 ff ff ff       	jmp    45d5 <__nptl_change_stack_perm@@GLIBC_PRIVATE+0x725>
    468f:	90                   	nop
    4690:	f3 0f 1e fa          	endbr64
    4694:	41 57                	push   %r15
    4696:	41 56                	push   %r14
    4698:	41 55                	push   %r13
    469a:	41 54                	push   %r12
    469c:	55                   	push   %rbp
    469d:	53                   	push   %rbx
    469e:	48 83 ec 28          	sub    $0x28,%rsp
    46a2:	48 85 ff             	test   %rdi,%rdi
    46a5:	0f 84 03 04 00 00    	je     4aae <__nptl_change_stack_perm@@GLIBC_PRIVATE+0xbfe>
    46ab:	48 89 fb             	mov    %rdi,%rbx
    46ae:	48 89 f8             	mov    %rdi,%rax
    46b1:	45 31 e4             	xor    %r12d,%r12d
    46b4:	eb 13                	jmp    46c9 <__nptl_change_stack_perm@@GLIBC_PRIVATE+0x819>
    46b6:	66 2e 0f 1f 84 00 00 	cs nopw 0x0(%rax,%rax,1)
    46bd:	00 00 00 
    46c0:	48 8b 40 18          	mov    0x18(%rax),%rax
    46c4:	48 85 c0             	test   %rax,%rax
    46c7:	74 22                	je     46eb <__nptl_change_stack_perm@@GLIBC_PRIVATE+0x83b>
    46c9:	48 39 40 28          	cmp    %rax,0x28(%rax)
    46cd:	75 f1                	jne    46c0 <__nptl_change_stack_perm@@GLIBC_PRIVATE+0x810>
    46cf:	0f b6 90 36 03 00 00 	movzbl 0x336(%rax),%edx
    46d6:	48 8b 40 18          	mov    0x18(%rax),%rax
    46da:	c0 ea 06             	shr    $0x6,%dl
    46dd:	83 f2 01             	xor    $0x1,%edx
    46e0:	83 e2 01             	and    $0x1,%edx
    46e3:	49 01 d4             	add    %rdx,%r12
    46e6:	48 85 c0             	test   %rax,%rax
    46e9:	75 de                	jne    46c9 <__nptl_change_stack_perm@@GLIBC_PRIVATE+0x819>
    46eb:	4d 85 e4             	test   %r12,%r12
    46ee:	0f 84 ba 03 00 00    	je     4aae <__nptl_change_stack_perm@@GLIBC_PRIVATE+0xbfe>
    46f4:	4a 8d 3c e5 00 00 00 	lea    0x0(,%r12,8),%rdi
    46fb:	00 
    46fc:	ff 15 2e e3 02 00    	call   *0x2e32e(%rip)        # 32a30 <__rseq_size@@GLIBC_2.35+0x1260>
    4702:	49 89 c5             	mov    %rax,%r13
    4705:	48 85 c0             	test   %rax,%rax
    4708:	0f 84 b1 03 00 00    	je     4abf <__nptl_change_stack_perm@@GLIBC_PRIVATE+0xc0f>
    470e:	31 c0                	xor    %eax,%eax
    4710:	eb 0f                	jmp    4721 <__nptl_change_stack_perm@@GLIBC_PRIVATE+0x871>
    4712:	66 0f 1f 44 00 00    	nopw   0x0(%rax,%rax,1)
    4718:	48 8b 5b 18          	mov    0x18(%rbx),%rbx
    471c:	48 85 db             	test   %rbx,%rbx
    471f:	74 27                	je     4748 <__nptl_change_stack_perm@@GLIBC_PRIVATE+0x898>
    4721:	48 39 5b 28          	cmp    %rbx,0x28(%rbx)
    4725:	75 f1                	jne    4718 <__nptl_change_stack_perm@@GLIBC_PRIVATE+0x868>
    4727:	f6 83 36 03 00 00 40 	testb  $0x40,0x336(%rbx)
    472e:	75 e8                	jne    4718 <__nptl_change_stack_perm@@GLIBC_PRIVATE+0x868>
    4730:	49 89 5c c5 00       	mov    %rbx,0x0(%r13,%rax,8)
    4735:	48 8b 5b 18          	mov    0x18(%rbx),%rbx
    4739:	48 83 c0 01          	add    $0x1,%rax
    473d:	48 85 db             	test   %rbx,%rbx
    4740:	75 df                	jne    4721 <__nptl_change_stack_perm@@GLIBC_PRIVATE+0x871>
    4742:	66 0f 1f 44 00 00    	nopw   0x0(%rax,%rax,1)
    4748:	49 83 fc 01          	cmp    $0x1,%r12
    474c:	74 6a                	je     47b8 <__nptl_change_stack_perm@@GLIBC_PRIVATE+0x908>
    474e:	4d 8d 54 24 ff       	lea    -0x1(%r12),%r10
    4753:	4d 89 e8             	mov    %r13,%r8
    4756:	31 f6                	xor    %esi,%esi
    4758:	0f 1f 84 00 00 00 00 	nopl   0x0(%rax,%rax,1)
    475f:	00 
    4760:	4d 8b 08             	mov    (%r8),%r9
    4763:	48 89 f7             	mov    %rsi,%rdi
    4766:	48 83 c6 01          	add    $0x1,%rsi
    476a:	49 8b 89 70 03 00 00 	mov    0x370(%r9),%rcx
    4771:	4c 39 e6             	cmp    %r12,%rsi
    4774:	0f 83 29 03 00 00    	jae    4aa3 <__nptl_change_stack_perm@@GLIBC_PRIVATE+0xbf3>
    477a:	48 89 f0             	mov    %rsi,%rax
    477d:	0f 1f 00             	nopl   (%rax)
    4780:	49 8b 54 c5 00       	mov    0x0(%r13,%rax,8),%rdx
    4785:	48 8b 92 70 03 00 00 	mov    0x370(%rdx),%rdx
    478c:	48 39 ca             	cmp    %rcx,%rdx
    478f:	73 06                	jae    4797 <__nptl_change_stack_perm@@GLIBC_PRIVATE+0x8e7>
    4791:	48 89 d1             	mov    %rdx,%rcx
    4794:	48 89 c7             	mov    %rax,%rdi
    4797:	48 83 c0 01          	add    $0x1,%rax
    479b:	4c 39 e0             	cmp    %r12,%rax
    479e:	75 e0                	jne    4780 <__nptl_change_stack_perm@@GLIBC_PRIVATE+0x8d0>
    47a0:	49 8d 44 fd 00       	lea    0x0(%r13,%rdi,8),%rax
    47a5:	48 8b 10             	mov    (%rax),%rdx
    47a8:	4c 89 08             	mov    %r9,(%rax)
    47ab:	49 83 c0 08          	add    $0x8,%r8
    47af:	49 89 50 f8          	mov    %rdx,-0x8(%r8)
    47b3:	4c 39 d6             	cmp    %r10,%rsi
    47b6:	75 a8                	jne    4760 <__nptl_change_stack_perm@@GLIBC_PRIVATE+0x8b0>
    47b8:	48 8b 05 81 f9 02 00 	mov    0x2f981(%rip),%rax        # 34140 <_r_debug@@GLIBC_2.2.5+0x38>
    47bf:	4c 8d 35 8a f9 02 00 	lea    0x2f98a(%rip),%r14        # 34150 <_r_debug@@GLIBC_2.2.5+0x48>
    47c6:	31 d2                	xor    %edx,%edx
    47c8:	41 89 c7             	mov    %eax,%r15d
    47cb:	83 e0 01             	and    $0x1,%eax
    47ce:	49 8b 2c c6          	mov    (%r14,%rax,8),%rbp
    47d2:	41 83 e7 01          	and    $0x1,%r15d
    47d6:	48 89 ee             	mov    %rbp,%rsi
    47d9:	48 85 ed             	test   %rbp,%rbp
    47dc:	0f 84 e1 02 00 00    	je     4ac3 <__nptl_change_stack_perm@@GLIBC_PRIVATE+0xc13>
    47e2:	66 0f 1f 44 00 00    	nopw   0x0(%rax,%rax,1)
    47e8:	48 8b 7e 10          	mov    0x10(%rsi),%rdi
    47ec:	48 85 ff             	test   %rdi,%rdi
    47ef:	74 29                	je     481a <__nptl_change_stack_perm@@GLIBC_PRIVATE+0x96a>
    47f1:	31 c0                	xor    %eax,%eax
    47f3:	0f 1f 44 00 00       	nopl   0x0(%rax,%rax,1)
    47f8:	48 89 c1             	mov    %rax,%rcx
    47fb:	48 c1 e1 05          	shl    $0x5,%rcx
    47ff:	48 83 7c 0e 30 01    	cmpq   $0x1,0x30(%rsi,%rcx,1)
    4805:	48 83 da ff          	sbb    $0xffffffffffffffff,%rdx
    4809:	48 83 c0 01          	add    $0x1,%rax
    480d:	48 39 f8             	cmp    %rdi,%rax
    4810:	75 e6                	jne    47f8 <__nptl_change_stack_perm@@GLIBC_PRIVATE+0x948>
    4812:	48 8b 36             	mov    (%rsi),%rsi
    4815:	48 85 f6             	test   %rsi,%rsi
    4818:	75 ce                	jne    47e8 <__nptl_change_stack_perm@@GLIBC_PRIVATE+0x938>
    481a:	41 83 f7 01          	xor    $0x1,%r15d
    481e:	4a 8d 1c 22          	lea    (%rdx,%r12,1),%rbx
    4822:	4d 63 ff             	movslq %r15d,%r15
    4825:	4f 8b 0c fe          	mov    (%r14,%r15,8),%r9
    4829:	4d 85 c9             	test   %r9,%r9
    482c:	0f 84 83 02 00 00    	je     4ab5 <__nptl_change_stack_perm@@GLIBC_PRIVATE+0xc05>
    4832:	4c 89 c8             	mov    %r9,%rax
    4835:	31 d2                	xor    %edx,%edx
    4837:	66 0f 1f 84 00 00 00 	nopw   0x0(%rax,%rax,1)
    483e:	00 00 
    4840:	48 03 50 18          	add    0x18(%rax),%rdx
    4844:	48 8b 00             	mov    (%rax),%rax
    4847:	48 85 c0             	test   %rax,%rax
    484a:	75 f4                	jne    4840 <__nptl_change_stack_perm@@GLIBC_PRIVATE+0x990>
    484c:	48 39 da             	cmp    %rbx,%rdx
    484f:	0f 83 65 02 00 00    	jae    4aba <__nptl_change_stack_perm@@GLIBC_PRIVATE+0xc0a>
    4855:	49 8b 41 18          	mov    0x18(%r9),%rax
    4859:	48 89 d9             	mov    %rbx,%rcx
    485c:	4c 89 ce             	mov    %r9,%rsi
    485f:	48 29 d1             	sub    %rdx,%rcx
    4862:	48 01 c0             	add    %rax,%rax
    4865:	48 39 c1             	cmp    %rax,%rcx
    4868:	48 89 74 24 18       	mov    %rsi,0x18(%rsp)
    486d:	48 0f 43 c1          	cmovae %rcx,%rax
    4871:	48 8d 48 09          	lea    0x9(%rax),%rcx
    4875:	48 89 44 24 10       	mov    %rax,0x10(%rsp)
    487a:	48 c1 e1 05          	shl    $0x5,%rcx
    487e:	48 89 4c 24 08       	mov    %rcx,0x8(%rsp)
    4883:	48 89 cf             	mov    %rcx,%rdi
    4886:	ff 15 a4 e1 02 00    	call   *0x2e1a4(%rip)        # 32a30 <__rseq_size@@GLIBC_2.35+0x1260>
    488c:	48 85 c0             	test   %rax,%rax
    488f:	0f 84 54 02 00 00    	je     4ae9 <__nptl_change_stack_perm@@GLIBC_PRIVATE+0xc39>
    4895:	4c 8d 48 7f          	lea    0x7f(%rax),%r9
    4899:	48 8b 4c 24 08       	mov    0x8(%rsp),%rcx
    489e:	48 8b 74 24 18       	mov    0x18(%rsp),%rsi
    48a3:	49 83 e1 80          	and    $0xffffffffffffff80,%r9
    48a7:	48 8b 54 24 10       	mov    0x10(%rsp),%rdx
    48ac:	49 89 41 08          	mov    %rax,0x8(%r9)
    48b0:	48 01 c8             	add    %rcx,%rax
    48b3:	48 83 e0 80          	and    $0xffffffffffffff80,%rax
    48b7:	49 89 31             	mov    %rsi,(%r9)
    48ba:	4c 29 c8             	sub    %r9,%rax
    48bd:	49 c7 41 10 00 00 00 	movq   $0x0,0x10(%r9)
    48c4:	00 
    48c5:	48 83 e8 20          	sub    $0x20,%rax
    48c9:	48 c1 e8 05          	shr    $0x5,%rax
    48cd:	49 89 41 18          	mov    %rax,0x18(%r9)
    48d1:	48 39 d0             	cmp    %rdx,%rax
    48d4:	0f 82 8f 02 00 00    	jb     4b69 <__nptl_change_stack_perm@@GLIBC_PRIVATE+0xcb9>
    48da:	4f 89 0c fe          	mov    %r9,(%r14,%r15,8)
    48de:	4d 8b 51 18          	mov    0x18(%r9),%r10
    48e2:	4c 39 d3             	cmp    %r10,%rbx
    48e5:	4c 0f 46 d3          	cmovbe %rbx,%r10
    48e9:	31 c0                	xor    %eax,%eax
    48eb:	4d 89 51 10          	mov    %r10,0x10(%r9)
    48ef:	48 85 ed             	test   %rbp,%rbp
    48f2:	0f 84 ae 00 00 00    	je     49a6 <__nptl_change_stack_perm@@GLIBC_PRIVATE+0xaf6>
    48f8:	48 8b 45 10          	mov    0x10(%rbp),%rax
    48fc:	e9 a5 00 00 00       	jmp    49a6 <__nptl_change_stack_perm@@GLIBC_PRIVATE+0xaf6>
    4901:	0f 1f 80 00 00 00 00 	nopl   0x0(%rax)
    4908:	48 85 ed             	test   %rbp,%rbp
    490b:	0f 84 ff 00 00 00    	je     4a10 <__nptl_change_stack_perm@@GLIBC_PRIVATE+0xb60>
    4911:	48 8b 6d 00          	mov    0x0(%rbp),%rbp
    4915:	48 85 ed             	test   %rbp,%rbp
    4918:	0f 84 f2 00 00 00    	je     4a10 <__nptl_change_stack_perm@@GLIBC_PRIVATE+0xb60>
    491e:	48 8b 45 10          	mov    0x10(%rbp),%rax
    4922:	48 85 c0             	test   %rax,%rax
    4925:	0f 84 e5 00 00 00    	je     4a10 <__nptl_change_stack_perm@@GLIBC_PRIVATE+0xb60>
    492b:	4c 89 d6             	mov    %r10,%rsi
    492e:	49 89 c0             	mov    %rax,%r8
    4931:	48 8d 40 ff          	lea    -0x1(%rax),%rax
    4935:	48 89 c2             	mov    %rax,%rdx
    4938:	48 c1 e2 05          	shl    $0x5,%rdx
    493c:	48 83 7c 15 30 00    	cmpq   $0x0,0x30(%rbp,%rdx,1)
    4942:	0f 84 f8 00 00 00    	je     4a40 <__nptl_change_stack_perm@@GLIBC_PRIVATE+0xb90>
    4948:	48 85 db             	test   %rbx,%rbx
    494b:	0f 84 bb 01 00 00    	je     4b0c <__nptl_change_stack_perm@@GLIBC_PRIVATE+0xc5c>
    4951:	4d 85 d2             	test   %r10,%r10
    4954:	0f 84 ce 00 00 00    	je     4a28 <__nptl_change_stack_perm@@GLIBC_PRIVATE+0xb78>
    495a:	4c 8d 56 ff          	lea    -0x1(%rsi),%r10
    495e:	48 c1 e6 05          	shl    $0x5,%rsi
    4962:	4c 01 ce             	add    %r9,%rsi
    4965:	4d 85 e4             	test   %r12,%r12
    4968:	74 56                	je     49c0 <__nptl_change_stack_perm@@GLIBC_PRIVATE+0xb10>
    496a:	4f 8d 5c e5 f8       	lea    -0x8(%r13,%r12,8),%r11
    496f:	49 8b 3b             	mov    (%r11),%rdi
    4972:	48 85 ed             	test   %rbp,%rbp
    4975:	74 15                	je     498c <__nptl_change_stack_perm@@GLIBC_PRIVATE+0xadc>
    4977:	4c 89 c0             	mov    %r8,%rax
    497a:	48 c1 e0 05          	shl    $0x5,%rax
    497e:	48 8b 44 05 00       	mov    0x0(%rbp,%rax,1),%rax
    4983:	48 39 87 70 03 00 00 	cmp    %rax,0x370(%rdi)
    498a:	72 34                	jb     49c0 <__nptl_change_stack_perm@@GLIBC_PRIVATE+0xb10>
    498c:	e8 5f f5 ff ff       	call   3ef0 <__nptl_change_stack_perm@@GLIBC_PRIVATE+0x40>
    4991:	49 8b 03             	mov    (%r11),%rax
    4994:	49 83 ec 01          	sub    $0x1,%r12
    4998:	80 88 36 03 00 00 40 	orb    $0x40,0x336(%rax)
    499f:	4c 89 c0             	mov    %r8,%rax
    49a2:	48 83 eb 01          	sub    $0x1,%rbx
    49a6:	48 85 c0             	test   %rax,%rax
    49a9:	0f 84 59 ff ff ff    	je     4908 <__nptl_change_stack_perm@@GLIBC_PRIVATE+0xa58>
    49af:	48 85 ed             	test   %rbp,%rbp
    49b2:	0f 85 73 ff ff ff    	jne    492b <__nptl_change_stack_perm@@GLIBC_PRIVATE+0xa7b>
    49b8:	4c 89 d6             	mov    %r10,%rsi
    49bb:	49 89 c0             	mov    %rax,%r8
    49be:	eb 56                	jmp    4a16 <__nptl_change_stack_perm@@GLIBC_PRIVATE+0xb66>
    49c0:	4d 85 c0             	test   %r8,%r8
    49c3:	0f 84 24 01 00 00    	je     4aed <__nptl_change_stack_perm@@GLIBC_PRIVATE+0xc3d>
    49c9:	49 8d 40 ff          	lea    -0x1(%r8),%rax
    49cd:	49 c1 e0 05          	shl    $0x5,%r8
    49d1:	49 01 e8             	add    %rbp,%r8
    49d4:	48 89 c1             	mov    %rax,%rcx
    49d7:	49 8b 10             	mov    (%r8),%rdx
    49da:	48 c1 e1 05          	shl    $0x5,%rcx
    49de:	48 89 16             	mov    %rdx,(%rsi)
    49e1:	4c 89 d2             	mov    %r10,%rdx
    49e4:	48 c1 e2 05          	shl    $0x5,%rdx
    49e8:	48 8b 74 0d 28       	mov    0x28(%rbp,%rcx,1),%rsi
    49ed:	49 89 74 11 28       	mov    %rsi,0x28(%r9,%rdx,1)
    49f2:	48 8b 74 0d 30       	mov    0x30(%rbp,%rcx,1),%rsi
    49f7:	49 89 74 11 30       	mov    %rsi,0x30(%r9,%rdx,1)
    49fc:	48 8b 4c 0d 38       	mov    0x38(%rbp,%rcx,1),%rcx
    4a01:	49 89 4c 11 38       	mov    %rcx,0x38(%r9,%rdx,1)
    4a06:	eb 9a                	jmp    49a2 <__nptl_change_stack_perm@@GLIBC_PRIVATE+0xaf2>
    4a08:	0f 1f 84 00 00 00 00 	nopl   0x0(%rax,%rax,1)
    4a0f:	00 
    4a10:	4c 89 d6             	mov    %r10,%rsi
    4a13:	45 31 c0             	xor    %r8d,%r8d
    4a16:	4d 85 e4             	test   %r12,%r12
    4a19:	74 35                	je     4a50 <__nptl_change_stack_perm@@GLIBC_PRIVATE+0xba0>
    4a1b:	31 ed                	xor    %ebp,%ebp
    4a1d:	e9 26 ff ff ff       	jmp    4948 <__nptl_change_stack_perm@@GLIBC_PRIVATE+0xa98>
    4a22:	66 0f 1f 44 00 00    	nopw   0x0(%rax,%rax,1)
    4a28:	4d 8b 09             	mov    (%r9),%r9
    4a2b:	49 8b 71 18          	mov    0x18(%r9),%rsi
    4a2f:	48 39 f3             	cmp    %rsi,%rbx
    4a32:	48 0f 46 f3          	cmovbe %rbx,%rsi
    4a36:	49 89 71 10          	mov    %rsi,0x10(%r9)
    4a3a:	e9 1b ff ff ff       	jmp    495a <__nptl_change_stack_perm@@GLIBC_PRIVATE+0xaaa>
    4a3f:	90                   	nop
    4a40:	48 85 c0             	test   %rax,%rax
    4a43:	0f 84 c8 fe ff ff    	je     4911 <__nptl_change_stack_perm@@GLIBC_PRIVATE+0xa61>
    4a49:	e9 e0 fe ff ff       	jmp    492e <__nptl_change_stack_perm@@GLIBC_PRIVATE+0xa7e>
    4a4e:	66 90                	xchg   %ax,%ax
    4a50:	48 85 db             	test   %rbx,%rbx
    4a53:	0f 85 f1 00 00 00    	jne    4b4a <__nptl_change_stack_perm@@GLIBC_PRIVATE+0xc9a>
    4a59:	4d 85 d2             	test   %r10,%r10
    4a5c:	0f 85 c9 00 00 00    	jne    4b2b <__nptl_change_stack_perm@@GLIBC_PRIVATE+0xc7b>
    4a62:	49 8b 01             	mov    (%r9),%rax
    4a65:	48 85 c0             	test   %rax,%rax
    4a68:	74 08                	je     4a72 <__nptl_change_stack_perm@@GLIBC_PRIVATE+0xbc2>
    4a6a:	48 c7 40 10 00 00 00 	movq   $0x0,0x10(%rax)
    4a71:	00 
    4a72:	bb 01 00 00 00       	mov    $0x1,%ebx
    4a77:	48 8b 05 c2 f6 02 00 	mov    0x2f6c2(%rip),%rax        # 34140 <_r_debug@@GLIBC_2.2.5+0x38>
    4a7e:	48 83 c0 01          	add    $0x1,%rax
    4a82:	48 89 05 b7 f6 02 00 	mov    %rax,0x2f6b7(%rip)        # 34140 <_r_debug@@GLIBC_2.2.5+0x38>
    4a89:	4c 89 ef             	mov    %r13,%rdi
    4a8c:	ff 15 a6 df 02 00    	call   *0x2dfa6(%rip)        # 32a38 <__rseq_size@@GLIBC_2.35+0x1268>
    4a92:	48 83 c4 28          	add    $0x28,%rsp
    4a96:	89 d8                	mov    %ebx,%eax
    4a98:	5b                   	pop    %rbx
    4a99:	5d                   	pop    %rbp
    4a9a:	41 5c                	pop    %r12
    4a9c:	41 5d                	pop    %r13
    4a9e:	41 5e                	pop    %r14
    4aa0:	41 5f                	pop    %r15
    4aa2:	c3                   	ret
    4aa3:	4c 89 ca             	mov    %r9,%rdx
    4aa6:	4c 89 c0             	mov    %r8,%rax
    4aa9:	e9 fa fc ff ff       	jmp    47a8 <__nptl_change_stack_perm@@GLIBC_PRIVATE+0x8f8>
    4aae:	bb 01 00 00 00       	mov    $0x1,%ebx
    4ab3:	eb dd                	jmp    4a92 <__nptl_change_stack_perm@@GLIBC_PRIVATE+0xbe2>
    4ab5:	48 85 db             	test   %rbx,%rbx
    4ab8:	75 20                	jne    4ada <__nptl_change_stack_perm@@GLIBC_PRIVATE+0xc2a>
    4aba:	e9 1f fe ff ff       	jmp    48de <__nptl_change_stack_perm@@GLIBC_PRIVATE+0xa2e>
    4abf:	31 db                	xor    %ebx,%ebx
    4ac1:	eb cf                	jmp    4a92 <__nptl_change_stack_perm@@GLIBC_PRIVATE+0xbe2>
    4ac3:	41 83 f7 01          	xor    $0x1,%r15d
    4ac7:	4c 89 e3             	mov    %r12,%rbx
    4aca:	4d 63 ff             	movslq %r15d,%r15
    4acd:	4f 8b 0c fe          	mov    (%r14,%r15,8),%r9
    4ad1:	4d 85 c9             	test   %r9,%r9
    4ad4:	0f 85 58 fd ff ff    	jne    4832 <__nptl_change_stack_perm@@GLIBC_PRIVATE+0x982>
    4ada:	31 f6                	xor    %esi,%esi
    4adc:	48 89 d9             	mov    %rbx,%rcx
    4adf:	b8 3f 00 00 00       	mov    $0x3f,%eax
    4ae4:	e9 7c fd ff ff       	jmp    4865 <__nptl_change_stack_perm@@GLIBC_PRIVATE+0x9b5>
    4ae9:	31 db                	xor    %ebx,%ebx
    4aeb:	eb 9c                	jmp    4a89 <__nptl_change_stack_perm@@GLIBC_PRIVATE+0xbd9>
    4aed:	48 8d 0d 3c 53 02 00 	lea    0x2533c(%rip),%rcx        # 29e30 <__rtld_version_placeholder@GLIBC_2.34+0x35c0>
    4af4:	ba ed 02 00 00       	mov    $0x2ed,%edx
    4af9:	48 8d 35 41 3f 02 00 	lea    0x23f41(%rip),%rsi        # 28a41 <__rtld_version_placeholder@GLIBC_2.34+0x21d1>
    4b00:	48 8d 3d 88 3f 02 00 	lea    0x23f88(%rip),%rdi        # 28a8f <__rtld_version_placeholder@GLIBC_2.34+0x221f>
    4b07:	e8 a4 4e 01 00       	call   199b0 <_dl_audit_symbind_alt@@GLIBC_PRIVATE+0x1e60>
    4b0c:	48 8d 0d 1d 53 02 00 	lea    0x2531d(%rip),%rcx        # 29e30 <__rtld_version_placeholder@GLIBC_2.34+0x35c0>
    4b13:	ba da 02 00 00       	mov    $0x2da,%edx
    4b18:	48 8d 35 22 3f 02 00 	lea    0x23f22(%rip),%rsi        # 28a41 <__rtld_version_placeholder@GLIBC_2.34+0x21d1>
    4b1f:	48 8d 3d 54 3f 02 00 	lea    0x23f54(%rip),%rdi        # 28a7a <__rtld_version_placeholder@GLIBC_2.34+0x220a>
    4b26:	e8 85 4e 01 00       	call   199b0 <_dl_audit_symbind_alt@@GLIBC_PRIVATE+0x1e60>
    4b2b:	48 8d 0d fe 52 02 00 	lea    0x252fe(%rip),%rcx        # 29e30 <__rtld_version_placeholder@GLIBC_2.34+0x35c0>
    4b32:	ba 05 03 00 00       	mov    $0x305,%edx
    4b37:	48 8d 35 03 3f 02 00 	lea    0x23f03(%rip),%rsi        # 28a41 <__rtld_version_placeholder@GLIBC_2.34+0x21d1>
    4b3e:	48 8d 3d 77 3f 02 00 	lea    0x23f77(%rip),%rdi        # 28abc <__rtld_version_placeholder@GLIBC_2.34+0x224c>
    4b45:	e8 66 4e 01 00       	call   199b0 <_dl_audit_symbind_alt@@GLIBC_PRIVATE+0x1e60>
    4b4a:	48 8d 0d df 52 02 00 	lea    0x252df(%rip),%rcx        # 29e30 <__rtld_version_placeholder@GLIBC_2.34+0x35c0>
    4b51:	ba 02 03 00 00       	mov    $0x302,%edx
    4b56:	48 8d 35 e4 3e 02 00 	lea    0x23ee4(%rip),%rsi        # 28a41 <__rtld_version_placeholder@GLIBC_2.34+0x21d1>
    4b5d:	48 8d 3d 42 3f 02 00 	lea    0x23f42(%rip),%rdi        # 28aa6 <__rtld_version_placeholder@GLIBC_2.34+0x2236>
    4b64:	e8 47 4e 01 00       	call   199b0 <_dl_audit_symbind_alt@@GLIBC_PRIVATE+0x1e60>
    4b69:	48 8d 0d f0 82 02 00 	lea    0x282f0(%rip),%rcx        # 2ce60 <__rtld_version_placeholder@GLIBC_2.34+0x65f0>
    4b70:	ba ec 00 00 00       	mov    $0xec,%edx
    4b75:	48 8d 35 c5 3e 02 00 	lea    0x23ec5(%rip),%rsi        # 28a41 <__rtld_version_placeholder@GLIBC_2.34+0x21d1>
    4b7c:	48 8d 3d dd 3e 02 00 	lea    0x23edd(%rip),%rdi        # 28a60 <__rtld_version_placeholder@GLIBC_2.34+0x21f0>
    4b83:	e8 28 4e 01 00       	call   199b0 <_dl_audit_symbind_alt@@GLIBC_PRIVATE+0x1e60>
    4b88:	0f 1f 84 00 00 00 00 	nopl   0x0(%rax,%rax,1)
    4b8f:	00 
    4b90:	f3 0f 1e fa          	endbr64
    4b94:	48 8b 05 a5 f5 02 00 	mov    0x2f5a5(%rip),%rax        # 34140 <_r_debug@@GLIBC_2.2.5+0x38>
    4b9b:	48 8d 15 ae f5 02 00 	lea    0x2f5ae(%rip),%rdx        # 34150 <_r_debug@@GLIBC_2.2.5+0x48>
    4ba2:	48 8b 8f 70 03 00 00 	mov    0x370(%rdi),%rcx
    4ba9:	83 e0 01             	and    $0x1,%eax
    4bac:	48 8b 04 c2          	mov    (%rdx,%rax,8),%rax
    4bb0:	48 85 c0             	test   %rax,%rax
    4bb3:	75 19                	jne    4bce <__nptl_change_stack_perm@@GLIBC_PRIVATE+0xd1e>
    4bb5:	c3                   	ret
    4bb6:	66 2e 0f 1f 84 00 00 	cs nopw 0x0(%rax,%rax,1)
    4bbd:	00 00 00 
    4bc0:	48 3b 48 20          	cmp    0x20(%rax),%rcx
    4bc4:	73 1a                	jae    4be0 <__nptl_change_stack_perm@@GLIBC_PRIVATE+0xd30>
    4bc6:	48 8b 00             	mov    (%rax),%rax
    4bc9:	48 85 c0             	test   %rax,%rax
    4bcc:	74 09                	je     4bd7 <__nptl_change_stack_perm@@GLIBC_PRIVATE+0xd27>
    4bce:	48 8b 50 10          	mov    0x10(%rax),%rdx
    4bd2:	48 85 d2             	test   %rdx,%rdx
    4bd5:	75 e9                	jne    4bc0 <__nptl_change_stack_perm@@GLIBC_PRIVATE+0xd10>
    4bd7:	c3                   	ret
    4bd8:	0f 1f 84 00 00 00 00 	nopl   0x0(%rax,%rax,1)
    4bdf:	00 
    4be0:	49 89 d1             	mov    %rdx,%r9
    4be3:	48 83 c0 20          	add    $0x20,%rax
    4be7:	49 c1 e1 05          	shl    $0x5,%r9
    4beb:	49 01 c1             	add    %rax,%r9
    4bee:	eb 10                	jmp    4c00 <__nptl_change_stack_perm@@GLIBC_PRIVATE+0xd50>
    4bf0:	48 83 ea 01          	sub    $0x1,%rdx
    4bf4:	48 8d 46 20          	lea    0x20(%rsi),%rax
    4bf8:	48 29 fa             	sub    %rdi,%rdx
    4bfb:	48 85 d2             	test   %rdx,%rdx
    4bfe:	74 20                	je     4c20 <__nptl_change_stack_perm@@GLIBC_PRIVATE+0xd70>
    4c00:	48 89 d7             	mov    %rdx,%rdi
    4c03:	48 d1 ef             	shr    $1,%rdi
    4c06:	48 89 fe             	mov    %rdi,%rsi
    4c09:	48 c1 e6 05          	shl    $0x5,%rsi
    4c0d:	48 01 c6             	add    %rax,%rsi
    4c10:	4c 8b 06             	mov    (%rsi),%r8
    4c13:	49 39 c8             	cmp    %rcx,%r8
    4c16:	72 d8                	jb     4bf0 <__nptl_change_stack_perm@@GLIBC_PRIVATE+0xd40>
    4c18:	48 89 fa             	mov    %rdi,%rdx
    4c1b:	48 85 d2             	test   %rdx,%rdx
    4c1e:	75 e0                	jne    4c00 <__nptl_change_stack_perm@@GLIBC_PRIVATE+0xd50>
    4c20:	49 39 c1             	cmp    %rax,%r9
    4c23:	74 08                	je     4c2d <__nptl_change_stack_perm@@GLIBC_PRIVATE+0xd7d>
    4c25:	48 8b 10             	mov    (%rax),%rdx
    4c28:	48 39 d1             	cmp    %rdx,%rcx
    4c2b:	74 1d                	je     4c4a <__nptl_change_stack_perm@@GLIBC_PRIVATE+0xd9a>
    4c2d:	48 8b 50 e8          	mov    -0x18(%rax),%rdx
    4c31:	48 39 d1             	cmp    %rdx,%rcx
    4c34:	73 a1                	jae    4bd7 <__nptl_change_stack_perm@@GLIBC_PRIVATE+0xd27>
    4c36:	48 83 e8 20          	sub    $0x20,%rax
    4c3a:	48 8b 10             	mov    (%rax),%rdx
    4c3d:	48 89 50 08          	mov    %rdx,0x8(%rax)
    4c41:	48 c7 40 10 00 00 00 	movq   $0x0,0x10(%rax)
    4c48:	00 
    4c49:	c3                   	ret
    4c4a:	48 8b 50 08          	mov    0x8(%rax),%rdx
    4c4e:	48 85 c0             	test   %rax,%rax
    4c51:	74 84                	je     4bd7 <__nptl_change_stack_perm@@GLIBC_PRIVATE+0xd27>
    4c53:	48 39 d1             	cmp    %rdx,%rcx
    4c56:	72 e2                	jb     4c3a <__nptl_change_stack_perm@@GLIBC_PRIVATE+0xd8a>
    4c58:	c3                   	ret
    4c59:	0f 1f 80 00 00 00 00 	nopl   0x0(%rax)
    4c60:	f3 0f 1e fa          	endbr64
    4c64:	53                   	push   %rbx
    4c65:	48 8b 1d e4 f4 02 00 	mov    0x2f4e4(%rip),%rbx        # 34150 <_r_debug@@GLIBC_2.2.5+0x48>
    4c6c:	48 85 db             	test   %rbx,%rbx
    4c6f:	74 1c                	je     4c8d <__nptl_change_stack_perm@@GLIBC_PRIVATE+0xddd>
    4c71:	0f 1f 80 00 00 00 00 	nopl   0x0(%rax)
    4c78:	48 89 d8             	mov    %rbx,%rax
    4c7b:	48 8b 1b             	mov    (%rbx),%rbx
    4c7e:	48 8b 78 08          	mov    0x8(%rax),%rdi
    4c82:	ff 15 b0 dd 02 00    	call   *0x2ddb0(%rip)        # 32a38 <__rseq_size@@GLIBC_2.35+0x1268>
    4c88:	48 85 db             	test   %rbx,%rbx
    4c8b:	75 eb                	jne    4c78 <__nptl_change_stack_perm@@GLIBC_PRIVATE+0xdc8>
    4c8d:	48 8b 1d c4 f4 02 00 	mov    0x2f4c4(%rip),%rbx        # 34158 <_r_debug@@GLIBC_2.2.5+0x50>
    4c94:	48 c7 05 b1 f4 02 00 	movq   $0x0,0x2f4b1(%rip)        # 34150 <_r_debug@@GLIBC_2.2.5+0x48>
    4c9b:	00 00 00 00 
    4c9f:	48 85 db             	test   %rbx,%rbx
    4ca2:	74 19                	je     4cbd <__nptl_change_stack_perm@@GLIBC_PRIVATE+0xe0d>
    4ca4:	0f 1f 40 00          	nopl   0x0(%rax)
    4ca8:	48 89 d8             	mov    %rbx,%rax
    4cab:	48 8b 1b             	mov    (%rbx),%rbx
    4cae:	48 8b 78 08          	mov    0x8(%rax),%rdi
    4cb2:	ff 15 80 dd 02 00    	call   *0x2dd80(%rip)        # 32a38 <__rseq_size@@GLIBC_2.35+0x1268>
    4cb8:	48 85 db             	test   %rbx,%rbx
    4cbb:	75 eb                	jne    4ca8 <__nptl_change_stack_perm@@GLIBC_PRIVATE+0xdf8>
    4cbd:	48 c7 05 90 f4 02 00 	movq   $0x0,0x2f490(%rip)        # 34158 <_r_debug@@GLIBC_2.2.5+0x50>
    4cc4:	00 00 00 00 
    4cc8:	5b                   	pop    %rbx
    4cc9:	c3                   	ret
    4cca:	66 0f 1f 44 00 00    	nopw   0x0(%rax,%rax,1)
    4cd0:	f3 0f 1e fa          	endbr64
    4cd4:	41 57                	push   %r15
    4cd6:	41 56                	push   %r14
    4cd8:	41 55                	push   %r13
    4cda:	41 54                	push   %r12
    4cdc:	55                   	push   %rbp
    4cdd:	53                   	push   %rbx
    4cde:	48 8d 1d 23 ed 02 00 	lea    0x2ed23(%rip),%rbx        # 33a08 <_rtld_global@@GLIBC_PRIVATE+0xa08>
    4ce5:	48 89 df             	mov    %rbx,%rdi
    4ce8:	48 83 ec 08          	sub    $0x8,%rsp
    4cec:	ff 15 5e dd 02 00    	call   *0x2dd5e(%rip)        # 32a50 <__rseq_size@@GLIBC_2.35+0x1280>
    4cf2:	4c 8b 2d 67 f4 02 00 	mov    0x2f467(%rip),%r13        # 34160 <_r_debug@@GLIBC_2.2.5+0x58>
    4cf9:	4c 89 e8             	mov    %r13,%rax
    4cfc:	4d 85 ed             	test   %r13,%r13
    4cff:	74 1a                	je     4d1b <__nptl_change_stack_perm@@GLIBC_PRIVATE+0xe6b>
    4d01:	0f 1f 80 00 00 00 00 	nopl   0x0(%rax)
    4d08:	83 80 30 03 00 00 01 	addl   $0x1,0x330(%rax)
    4d0f:	48 8b 80 80 03 00 00 	mov    0x380(%rax),%rax
    4d16:	48 85 c0             	test   %rax,%rax
    4d19:	75 ed                	jne    4d08 <__nptl_change_stack_perm@@GLIBC_PRIVATE+0xe58>
    4d1b:	48 89 df             	mov    %rbx,%rdi
    4d1e:	45 31 f6             	xor    %r14d,%r14d
    4d21:	49 c7 c7 ff ff ff ff 	mov    $0xffffffffffffffff,%r15
    4d28:	ff 15 1a dd 02 00    	call   *0x2dd1a(%rip)        # 32a48 <__rseq_size@@GLIBC_2.35+0x1278>
    4d2e:	8b 05 0c e1 02 00    	mov    0x2e10c(%rip),%eax        # 32e40 <_rtld_global_ro@@GLIBC_PRIVATE+0x380>
    4d34:	85 c0                	test   %eax,%eax
    4d36:	41 0f 95 c6          	setne  %r14b
    4d3a:	31 ed                	xor    %ebp,%ebp
    4d3c:	4d 85 ed             	test   %r13,%r13
    4d3f:	74 6f                	je     4db0 <__nptl_change_stack_perm@@GLIBC_PRIVATE+0xf00>
    4d41:	4c 89 eb             	mov    %r13,%rbx
    4d44:	4c 8d 25 b5 e2 02 00 	lea    0x2e2b5(%rip),%r12        # 33000 <_rtld_global@@GLIBC_PRIVATE>
    4d4b:	0f 1f 44 00 00       	nopl   0x0(%rax,%rax,1)
    4d50:	48 8b 7b 30          	mov    0x30(%rbx),%rdi
    4d54:	48 8d 04 bf          	lea    (%rdi,%rdi,4),%rax
    4d58:	48 c1 e0 05          	shl    $0x5,%rax
    4d5c:	49 8b 04 04          	mov    (%r12,%rax,1),%rax
    4d60:	0f b6 80 36 03 00 00 	movzbl 0x336(%rax),%eax
    4d67:	83 e0 01             	and    $0x1,%eax
    4d6a:	39 e8                	cmp    %ebp,%eax
    4d6c:	75 36                	jne    4da4 <__nptl_change_stack_perm@@GLIBC_PRIVATE+0xef4>
    4d6e:	4c 39 ff             	cmp    %r15,%rdi
    4d71:	74 21                	je     4d94 <__nptl_change_stack_perm@@GLIBC_PRIVATE+0xee4>
    4d73:	4d 85 ff             	test   %r15,%r15
    4d76:	78 0e                	js     4d86 <__nptl_change_stack_perm@@GLIBC_PRIVATE+0xed6>
    4d78:	4c 89 ff             	mov    %r15,%rdi
    4d7b:	31 f6                	xor    %esi,%esi
    4d7d:	e8 fe 2a 01 00       	call   17880 <_dl_x86_get_cpu_features@@GLIBC_PRIVATE+0x550>
    4d82:	48 8b 7b 30          	mov    0x30(%rbx),%rdi
    4d86:	be 02 00 00 00       	mov    $0x2,%esi
    4d8b:	e8 f0 2a 01 00       	call   17880 <_dl_x86_get_cpu_features@@GLIBC_PRIVATE+0x550>
    4d90:	4c 8b 7b 30          	mov    0x30(%rbx),%r15
    4d94:	48 89 df             	mov    %rbx,%rdi
    4d97:	e8 f4 c2 ff ff       	call   1090 <GLIBC_2.2.5@@GLIBC_2.2.5+0x1090>
    4d9c:	48 89 df             	mov    %rbx,%rdi
    4d9f:	e8 8c 2c 01 00       	call   17a30 <_dl_x86_get_cpu_features@@GLIBC_PRIVATE+0x700>
    4da4:	48 8b 9b 80 03 00 00 	mov    0x380(%rbx),%rbx
    4dab:	48 85 db             	test   %rbx,%rbx
    4dae:	75 a0                	jne    4d50 <__nptl_change_stack_perm@@GLIBC_PRIVATE+0xea0>
    4db0:	44 39 f5             	cmp    %r14d,%ebp
    4db3:	7d 0a                	jge    4dbf <__nptl_change_stack_perm@@GLIBC_PRIVATE+0xf0f>
    4db5:	bd 01 00 00 00       	mov    $0x1,%ebp
    4dba:	4d 85 ed             	test   %r13,%r13
    4dbd:	75 82                	jne    4d41 <__nptl_change_stack_perm@@GLIBC_PRIVATE+0xe91>
    4dbf:	4d 85 ff             	test   %r15,%r15
    4dc2:	78 0a                	js     4dce <__nptl_change_stack_perm@@GLIBC_PRIVATE+0xf1e>
    4dc4:	31 f6                	xor    %esi,%esi
    4dc6:	4c 89 ff             	mov    %r15,%rdi
    4dc9:	e8 b2 2a 01 00       	call   17880 <_dl_x86_get_cpu_features@@GLIBC_PRIVATE+0x550>
    4dce:	f6 05 eb dc 02 00 80 	testb  $0x80,0x2dceb(%rip)        # 32ac0 <_rtld_global_ro@@GLIBC_PRIVATE>
    4dd5:	75 0f                	jne    4de6 <__nptl_change_stack_perm@@GLIBC_PRIVATE+0xf36>
    4dd7:	48 83 c4 08          	add    $0x8,%rsp
    4ddb:	5b                   	pop    %rbx
    4ddc:	5d                   	pop    %rbp
    4ddd:	41 5c                	pop    %r12
    4ddf:	41 5d                	pop    %r13
    4de1:	41 5e                	pop    %r14
    4de3:	41 5f                	pop    %r15
    4de5:	c3                   	ret
    4de6:	48 8b 15 b3 ec 02 00 	mov    0x2ecb3(%rip),%rdx        # 33aa0 <_rtld_global@@GLIBC_PRIVATE+0xaa0>
    4ded:	48 8b 35 a4 ec 02 00 	mov    0x2eca4(%rip),%rsi        # 33a98 <_rtld_global@@GLIBC_PRIVATE+0xa98>
    4df4:	48 83 c4 08          	add    $0x8,%rsp
    4df8:	48 8d 3d 79 58 02 00 	lea    0x25879(%rip),%rdi        # 2a678 <__rtld_version_placeholder@GLIBC_2.34+0x3e08>
    4dff:	5b                   	pop    %rbx
    4e00:	31 c0                	xor    %eax,%eax
    4e02:	5d                   	pop    %rbp
    4e03:	41 5c                	pop    %r12
    4e05:	41 5d                	pop    %r13
    4e07:	41 5e                	pop    %r14
    4e09:	41 5f                	pop    %r15
    4e0b:	e9 c0 83 00 00       	jmp    d1d0 <_dl_find_dso_for_object@@GLIBC_PRIVATE+0x1760>
    4e10:	48 39 7f 28          	cmp    %rdi,0x28(%rdi)
    4e14:	74 0a                	je     4e20 <__nptl_change_stack_perm@@GLIBC_PRIVATE+0xf70>
    4e16:	c3                   	ret
    4e17:	66 0f 1f 84 00 00 00 	nopw   0x0(%rax,%rax,1)
    4e1e:	00 00 
    4e20:	41 56                	push   %r14
    4e22:	41 55                	push   %r13
    4e24:	49 89 cd             	mov    %rcx,%r13
    4e27:	41 54                	push   %r12
    4e29:	49 89 d4             	mov    %rdx,%r12
    4e2c:	55                   	push   %rbp
    4e2d:	89 f5                	mov    %esi,%ebp
    4e2f:	53                   	push   %rbx
    4e30:	0f b6 87 34 03 00 00 	movzbl 0x334(%rdi),%eax
    4e37:	48 89 fb             	mov    %rdi,%rbx
    4e3a:	a8 08                	test   $0x8,%al
    4e3c:	75 08                	jne    4e46 <__nptl_change_stack_perm@@GLIBC_PRIVATE+0xf96>
    4e3e:	a8 03                	test   $0x3,%al
    4e40:	0f 85 fb 00 00 00    	jne    4f41 <__nptl_change_stack_perm@@GLIBC_PRIVATE+0x1091>
    4e46:	a8 10                	test   $0x10,%al
    4e48:	0f 85 a8 00 00 00    	jne    4ef6 <__nptl_change_stack_perm@@GLIBC_PRIVATE+0x1046>
    4e4e:	48 8b 05 0b f3 02 00 	mov    0x2f30b(%rip),%rax        # 34160 <_r_debug@@GLIBC_2.2.5+0x58>
    4e55:	48 8b 73 08          	mov    0x8(%rbx),%rsi
    4e59:	48 89 1d 00 f3 02 00 	mov    %rbx,0x2f300(%rip)        # 34160 <_r_debug@@GLIBC_2.2.5+0x58>
    4e60:	66 81 8b 34 03 00 00 	orw    $0x410,0x334(%rbx)
    4e67:	10 04 
    4e69:	48 89 83 80 03 00 00 	mov    %rax,0x380(%rbx)
    4e70:	80 3e 00             	cmpb   $0x0,(%rsi)
    4e73:	0f 84 87 00 00 00    	je     4f00 <__nptl_change_stack_perm@@GLIBC_PRIVATE+0x1050>
    4e79:	f6 05 40 dc 02 00 02 	testb  $0x2,0x2dc40(%rip)        # 32ac0 <_rtld_global_ro@@GLIBC_PRIVATE>
    4e80:	0f 85 a8 00 00 00    	jne    4f2e <__nptl_change_stack_perm@@GLIBC_PRIVATE+0x107e>
    4e86:	48 8b 83 a0 00 00 00 	mov    0xa0(%rbx),%rax
    4e8d:	48 85 c0             	test   %rax,%rax
    4e90:	74 11                	je     4ea3 <__nptl_change_stack_perm@@GLIBC_PRIVATE+0xff3>
    4e92:	48 8b 40 08          	mov    0x8(%rax),%rax
    4e96:	4c 89 ea             	mov    %r13,%rdx
    4e99:	48 03 03             	add    (%rbx),%rax
    4e9c:	4c 89 e6             	mov    %r12,%rsi
    4e9f:	89 ef                	mov    %ebp,%edi
    4ea1:	ff d0                	call   *%rax
    4ea3:	48 8b 8b 08 01 00 00 	mov    0x108(%rbx),%rcx
    4eaa:	48 85 c9             	test   %rcx,%rcx
    4ead:	74 47                	je     4ef6 <__nptl_change_stack_perm@@GLIBC_PRIVATE+0x1046>
    4eaf:	48 8b 83 18 01 00 00 	mov    0x118(%rbx),%rax
    4eb6:	48 8b 50 08          	mov    0x8(%rax),%rdx
    4eba:	48 8b 03             	mov    (%rbx),%rax
    4ebd:	48 03 41 08          	add    0x8(%rcx),%rax
    4ec1:	48 c1 ea 03          	shr    $0x3,%rdx
    4ec5:	85 d2                	test   %edx,%edx
    4ec7:	74 2d                	je     4ef6 <__nptl_change_stack_perm@@GLIBC_PRIVATE+0x1046>
    4ec9:	83 ea 01             	sub    $0x1,%edx
    4ecc:	48 8d 58 08          	lea    0x8(%rax),%rbx
    4ed0:	4c 8d 34 d3          	lea    (%rbx,%rdx,8),%r14
    4ed4:	eb 0e                	jmp    4ee4 <__nptl_change_stack_perm@@GLIBC_PRIVATE+0x1034>
    4ed6:	66 2e 0f 1f 84 00 00 	cs nopw 0x0(%rax,%rax,1)
    4edd:	00 00 00 
    4ee0:	48 83 c3 08          	add    $0x8,%rbx
    4ee4:	4c 89 ea             	mov    %r13,%rdx
    4ee7:	4c 89 e6             	mov    %r12,%rsi
    4eea:	89 ef                	mov    %ebp,%edi
    4eec:	ff 10                	call   *(%rax)
    4eee:	48 89 d8             	mov    %rbx,%rax
    4ef1:	4c 39 f3             	cmp    %r14,%rbx
    4ef4:	75 ea                	jne    4ee0 <__nptl_change_stack_perm@@GLIBC_PRIVATE+0x1030>
    4ef6:	5b                   	pop    %rbx
    4ef7:	5d                   	pop    %rbp
    4ef8:	41 5c                	pop    %r12
    4efa:	41 5d                	pop    %r13
    4efc:	41 5e                	pop    %r14
    4efe:	c3                   	ret
    4eff:	90                   	nop
    4f00:	f6 83 34 03 00 00 03 	testb  $0x3,0x334(%rbx)
    4f07:	74 ed                	je     4ef6 <__nptl_change_stack_perm@@GLIBC_PRIVATE+0x1046>
    4f09:	f6 05 b0 db 02 00 02 	testb  $0x2,0x2dbb0(%rip)        # 32ac0 <_rtld_global_ro@@GLIBC_PRIVATE>
    4f10:	0f 84 70 ff ff ff    	je     4e86 <__nptl_change_stack_perm@@GLIBC_PRIVATE+0xfd6>
    4f16:	48 8b 05 7b db 02 00 	mov    0x2db7b(%rip),%rax        # 32a98 <_dl_argv@@GLIBC_PRIVATE>
    4f1d:	48 8b 30             	mov    (%rax),%rsi
    4f20:	48 8d 05 ef 3a 02 00 	lea    0x23aef(%rip),%rax        # 28a16 <__rtld_version_placeholder@GLIBC_2.34+0x21a6>
    4f27:	48 85 f6             	test   %rsi,%rsi
    4f2a:	48 0f 44 f0          	cmove  %rax,%rsi
    4f2e:	48 8d 3d a8 3b 02 00 	lea    0x23ba8(%rip),%rdi        # 28add <__rtld_version_placeholder@GLIBC_2.34+0x226d>
    4f35:	31 c0                	xor    %eax,%eax
    4f37:	e8 94 82 00 00       	call   d1d0 <_dl_find_dso_for_object@@GLIBC_PRIVATE+0x1760>
    4f3c:	e9 45 ff ff ff       	jmp    4e86 <__nptl_change_stack_perm@@GLIBC_PRIVATE+0xfd6>
    4f41:	48 8d 0d d8 57 02 00 	lea    0x257d8(%rip),%rcx        # 2a720 <__rtld_version_placeholder@GLIBC_2.34+0x3eb0>
    4f48:	ba 24 00 00 00       	mov    $0x24,%edx
    4f4d:	48 8d 35 7f 3b 02 00 	lea    0x23b7f(%rip),%rsi        # 28ad3 <__rtld_version_placeholder@GLIBC_2.34+0x2263>
    4f54:	48 8d 3d 95 57 02 00 	lea    0x25795(%rip),%rdi        # 2a6f0 <__rtld_version_placeholder@GLIBC_2.34+0x3e80>
    4f5b:	e8 50 4a 01 00       	call   199b0 <_dl_audit_symbind_alt@@GLIBC_PRIVATE+0x1e60>
    4f60:	f3 0f 1e fa          	endbr64
    4f64:	41 57                	push   %r15
    4f66:	41 56                	push   %r14
    4f68:	49 89 fe             	mov    %rdi,%r14
    4f6b:	41 55                	push   %r13
    4f6d:	49 89 cd             	mov    %rcx,%r13
    4f70:	41 54                	push   %r12
    4f72:	49 89 d4             	mov    %rdx,%r12
    4f75:	55                   	push   %rbp
    4f76:	89 f5                	mov    %esi,%ebp
    4f78:	53                   	push   %rbx
    4f79:	48 83 ec 08          	sub    $0x8,%rsp
    4f7d:	48 8b 9f 40 01 00 00 	mov    0x140(%rdi),%rbx
    4f84:	4c 8b bf 48 01 00 00 	mov    0x148(%rdi),%r15
    4f8b:	48 8b 3d f6 ea 02 00 	mov    0x2eaf6(%rip),%rdi        # 33a88 <_rtld_global@@GLIBC_PRIVATE+0xa88>
    4f92:	48 85 ff             	test   %rdi,%rdi
    4f95:	0f 85 a5 00 00 00    	jne    5040 <__nptl_change_stack_perm@@GLIBC_PRIVATE+0x1190>
    4f9b:	48 85 db             	test   %rbx,%rbx
    4f9e:	74 05                	je     4fa5 <__nptl_change_stack_perm@@GLIBC_PRIVATE+0x10f5>
    4fa0:	4d 85 ff             	test   %r15,%r15
    4fa3:	75 4c                	jne    4ff1 <__nptl_change_stack_perm@@GLIBC_PRIVATE+0x1141>
    4fa5:	41 8b 86 e0 02 00 00 	mov    0x2e0(%r14),%eax
    4fac:	8d 58 ff             	lea    -0x1(%rax),%ebx
    4faf:	85 c0                	test   %eax,%eax
    4fb1:	74 2f                	je     4fe2 <__nptl_change_stack_perm@@GLIBC_PRIVATE+0x1132>
    4fb3:	48 c1 e3 03          	shl    $0x3,%rbx
    4fb7:	66 0f 1f 84 00 00 00 	nopw   0x0(%rax,%rax,1)
    4fbe:	00 00 
    4fc0:	49 8b 86 e8 03 00 00 	mov    0x3e8(%r14),%rax
    4fc7:	4c 89 e9             	mov    %r13,%rcx
    4fca:	4c 89 e2             	mov    %r12,%rdx
    4fcd:	89 ee                	mov    %ebp,%esi
    4fcf:	48 8b 3c 18          	mov    (%rax,%rbx,1),%rdi
    4fd3:	48 83 eb 08          	sub    $0x8,%rbx
    4fd7:	e8 34 fe ff ff       	call   4e10 <__nptl_change_stack_perm@@GLIBC_PRIVATE+0xf60>
    4fdc:	48 83 fb f8          	cmp    $0xfffffffffffffff8,%rbx
    4fe0:	75 de                	jne    4fc0 <__nptl_change_stack_perm@@GLIBC_PRIVATE+0x1110>
    4fe2:	48 83 c4 08          	add    $0x8,%rsp
    4fe6:	5b                   	pop    %rbx
    4fe7:	5d                   	pop    %rbp
    4fe8:	41 5c                	pop    %r12
    4fea:	41 5d                	pop    %r13
    4fec:	41 5e                	pop    %r14
    4fee:	41 5f                	pop    %r15
    4ff0:	c3                   	ret
    4ff1:	4d 8b 7f 08          	mov    0x8(%r15),%r15
    4ff5:	49 c1 ef 03          	shr    $0x3,%r15
    4ff9:	45 85 ff             	test   %r15d,%r15d
    4ffc:	74 a7                	je     4fa5 <__nptl_change_stack_perm@@GLIBC_PRIVATE+0x10f5>
    4ffe:	f6 05 bb da 02 00 02 	testb  $0x2,0x2dabb(%rip)        # 32ac0 <_rtld_global_ro@@GLIBC_PRIVATE>
    5005:	75 4e                	jne    5055 <__nptl_change_stack_perm@@GLIBC_PRIVATE+0x11a5>
    5007:	49 8b 06             	mov    (%r14),%rax
    500a:	45 89 ff             	mov    %r15d,%r15d
    500d:	48 03 43 08          	add    0x8(%rbx),%rax
    5011:	48 89 c3             	mov    %rax,%rbx
    5014:	4e 8d 3c f8          	lea    (%rax,%r15,8),%r15
    5018:	0f 1f 84 00 00 00 00 	nopl   0x0(%rax,%rax,1)
    501f:	00 
    5020:	4c 89 ea             	mov    %r13,%rdx
    5023:	4c 89 e6             	mov    %r12,%rsi
    5026:	89 ef                	mov    %ebp,%edi
    5028:	ff 13                	call   *(%rbx)
    502a:	48 83 c3 08          	add    $0x8,%rbx
    502e:	49 39 df             	cmp    %rbx,%r15
    5031:	75 ed                	jne    5020 <__nptl_change_stack_perm@@GLIBC_PRIVATE+0x1170>
    5033:	e9 6d ff ff ff       	jmp    4fa5 <__nptl_change_stack_perm@@GLIBC_PRIVATE+0x10f5>
    5038:	0f 1f 84 00 00 00 00 	nopl   0x0(%rax,%rax,1)
    503f:	00 
    5040:	e8 cb fd ff ff       	call   4e10 <__nptl_change_stack_perm@@GLIBC_PRIVATE+0xf60>
    5045:	48 c7 05 38 ea 02 00 	movq   $0x0,0x2ea38(%rip)        # 33a88 <_rtld_global@@GLIBC_PRIVATE+0xa88>
    504c:	00 00 00 00 
    5050:	e9 46 ff ff ff       	jmp    4f9b <__nptl_change_stack_perm@@GLIBC_PRIVATE+0x10eb>
    5055:	49 8b 76 08          	mov    0x8(%r14),%rsi
    5059:	80 3e 00             	cmpb   $0x0,(%rsi)
    505c:	75 18                	jne    5076 <__nptl_change_stack_perm@@GLIBC_PRIVATE+0x11c6>
    505e:	48 8b 05 33 da 02 00 	mov    0x2da33(%rip),%rax        # 32a98 <_dl_argv@@GLIBC_PRIVATE>
    5065:	48 8b 30             	mov    (%rax),%rsi
    5068:	48 8d 05 a7 39 02 00 	lea    0x239a7(%rip),%rax        # 28a16 <__rtld_version_placeholder@GLIBC_2.34+0x21a6>
    506f:	48 85 f6             	test   %rsi,%rsi
    5072:	48 0f 44 f0          	cmove  %rax,%rsi
    5076:	48 8d 3d 74 3a 02 00 	lea    0x23a74(%rip),%rdi        # 28af1 <__rtld_version_placeholder@GLIBC_2.34+0x2281>
    507d:	31 c0                	xor    %eax,%eax
    507f:	e8 4c 81 00 00       	call   d1d0 <_dl_find_dso_for_object@@GLIBC_PRIVATE+0x1760>
    5084:	eb 81                	jmp    5007 <__nptl_change_stack_perm@@GLIBC_PRIVATE+0x1157>
    5086:	66 2e 0f 1f 84 00 00 	cs nopw 0x0(%rax,%rax,1)
    508d:	00 00 00 
    5090:	41 55                	push   %r13
    5092:	41 54                	push   %r12
    5094:	49 89 fc             	mov    %rdi,%r12
    5097:	48 89 f7             	mov    %rsi,%rdi
    509a:	55                   	push   %rbp
    509b:	48 89 f5             	mov    %rsi,%rbp
    509e:	53                   	push   %rbx
    509f:	48 83 ec 08          	sub    $0x8,%rsp
    50a3:	e8 38 f1 01 00       	call   241e0 <_dl_audit_symbind_alt@@GLIBC_PRIVATE+0xc690>
    50a8:	41 80 3c 24 7b       	cmpb   $0x7b,(%r12)
    50ad:	48 89 c3             	mov    %rax,%rbx
    50b0:	74 5e                	je     5110 <__nptl_change_stack_perm@@GLIBC_PRIVATE+0x1260>
    50b2:	48 89 c2             	mov    %rax,%rdx
    50b5:	48 89 ee             	mov    %rbp,%rsi
