
chall:     file format elf64-x86-64


Disassembly of section .init:

0000000000401000 <_init>:
  401000:	f3 0f 1e fa          	endbr64
  401004:	48 83 ec 08          	sub    $0x8,%rsp
  401008:	48 8b 05 e9 2f 00 00 	mov    0x2fe9(%rip),%rax        # 403ff8 <__gmon_start__@Base>
  40100f:	48 85 c0             	test   %rax,%rax
  401012:	74 02                	je     401016 <_init+0x16>
  401014:	ff d0                	call   *%rax
  401016:	48 83 c4 08          	add    $0x8,%rsp
  40101a:	c3                   	ret

Disassembly of section .plt:

0000000000401020 <puts@plt-0x10>:
  401020:	ff 35 e2 2f 00 00    	push   0x2fe2(%rip)        # 404008 <_GLOBAL_OFFSET_TABLE_+0x8>
  401026:	ff 25 e4 2f 00 00    	jmp    *0x2fe4(%rip)        # 404010 <_GLOBAL_OFFSET_TABLE_+0x10>
  40102c:	0f 1f 40 00          	nopl   0x0(%rax)

0000000000401030 <puts@plt>:
  401030:	ff 25 e2 2f 00 00    	jmp    *0x2fe2(%rip)        # 404018 <puts@GLIBC_2.2.5>
  401036:	68 00 00 00 00       	push   $0x0
  40103b:	e9 e0 ff ff ff       	jmp    401020 <_init+0x20>

0000000000401040 <printf@plt>:
  401040:	ff 25 da 2f 00 00    	jmp    *0x2fda(%rip)        # 404020 <printf@GLIBC_2.2.5>
  401046:	68 01 00 00 00       	push   $0x1
  40104b:	e9 d0 ff ff ff       	jmp    401020 <_init+0x20>

0000000000401050 <fgets@plt>:
  401050:	ff 25 d2 2f 00 00    	jmp    *0x2fd2(%rip)        # 404028 <fgets@GLIBC_2.2.5>
  401056:	68 02 00 00 00       	push   $0x2
  40105b:	e9 c0 ff ff ff       	jmp    401020 <_init+0x20>

0000000000401060 <malloc@plt>:
  401060:	ff 25 ca 2f 00 00    	jmp    *0x2fca(%rip)        # 404030 <malloc@GLIBC_2.2.5>
  401066:	68 03 00 00 00       	push   $0x3
  40106b:	e9 b0 ff ff ff       	jmp    401020 <_init+0x20>

0000000000401070 <fflush@plt>:
  401070:	ff 25 c2 2f 00 00    	jmp    *0x2fc2(%rip)        # 404038 <fflush@GLIBC_2.2.5>
  401076:	68 04 00 00 00       	push   $0x4
  40107b:	e9 a0 ff ff ff       	jmp    401020 <_init+0x20>

0000000000401080 <fopen@plt>:
  401080:	ff 25 ba 2f 00 00    	jmp    *0x2fba(%rip)        # 404040 <fopen@GLIBC_2.2.5>
  401086:	68 05 00 00 00       	push   $0x5
  40108b:	e9 90 ff ff ff       	jmp    401020 <_init+0x20>

0000000000401090 <__isoc99_scanf@plt>:
  401090:	ff 25 b2 2f 00 00    	jmp    *0x2fb2(%rip)        # 404048 <__isoc99_scanf@GLIBC_2.7>
  401096:	68 06 00 00 00       	push   $0x6
  40109b:	e9 80 ff ff ff       	jmp    401020 <_init+0x20>

00000000004010a0 <exit@plt>:
  4010a0:	ff 25 aa 2f 00 00    	jmp    *0x2faa(%rip)        # 404050 <exit@GLIBC_2.2.5>
  4010a6:	68 07 00 00 00       	push   $0x7
  4010ab:	e9 70 ff ff ff       	jmp    401020 <_init+0x20>

Disassembly of section .text:

00000000004010b0 <_start>:
  4010b0:	f3 0f 1e fa          	endbr64
  4010b4:	31 ed                	xor    %ebp,%ebp
  4010b6:	49 89 d1             	mov    %rdx,%r9
  4010b9:	5e                   	pop    %rsi
  4010ba:	48 89 e2             	mov    %rsp,%rdx
  4010bd:	48 83 e4 f0          	and    $0xfffffffffffffff0,%rsp
  4010c1:	50                   	push   %rax
  4010c2:	54                   	push   %rsp
  4010c3:	45 31 c0             	xor    %r8d,%r8d
  4010c6:	31 c9                	xor    %ecx,%ecx
  4010c8:	48 c7 c7 10 13 40 00 	mov    $0x401310,%rdi
  4010cf:	ff 15 1b 2f 00 00    	call   *0x2f1b(%rip)        # 403ff0 <__libc_start_main@GLIBC_2.34>
  4010d5:	f4                   	hlt
  4010d6:	66 2e 0f 1f 84 00 00 	cs nopw 0x0(%rax,%rax,1)
  4010dd:	00 00 00 

00000000004010e0 <_dl_relocate_static_pie>:
  4010e0:	f3 0f 1e fa          	endbr64
  4010e4:	c3                   	ret
  4010e5:	66 2e 0f 1f 84 00 00 	cs nopw 0x0(%rax,%rax,1)
  4010ec:	00 00 00 
  4010ef:	90                   	nop

00000000004010f0 <deregister_tm_clones>:
  4010f0:	b8 68 40 40 00       	mov    $0x404068,%eax
  4010f5:	48 3d 68 40 40 00    	cmp    $0x404068,%rax
  4010fb:	74 13                	je     401110 <deregister_tm_clones+0x20>
  4010fd:	b8 00 00 00 00       	mov    $0x0,%eax
  401102:	48 85 c0             	test   %rax,%rax
  401105:	74 09                	je     401110 <deregister_tm_clones+0x20>
  401107:	bf 68 40 40 00       	mov    $0x404068,%edi
  40110c:	ff e0                	jmp    *%rax
  40110e:	66 90                	xchg   %ax,%ax
  401110:	c3                   	ret
  401111:	66 66 2e 0f 1f 84 00 	data16 cs nopw 0x0(%rax,%rax,1)
  401118:	00 00 00 00 
  40111c:	0f 1f 40 00          	nopl   0x0(%rax)

0000000000401120 <register_tm_clones>:
  401120:	be 68 40 40 00       	mov    $0x404068,%esi
  401125:	48 81 ee 68 40 40 00 	sub    $0x404068,%rsi
  40112c:	48 89 f0             	mov    %rsi,%rax
  40112f:	48 c1 ee 3f          	shr    $0x3f,%rsi
  401133:	48 c1 f8 03          	sar    $0x3,%rax
  401137:	48 01 c6             	add    %rax,%rsi
  40113a:	48 d1 fe             	sar    $1,%rsi
  40113d:	74 11                	je     401150 <register_tm_clones+0x30>
  40113f:	b8 00 00 00 00       	mov    $0x0,%eax
  401144:	48 85 c0             	test   %rax,%rax
  401147:	74 07                	je     401150 <register_tm_clones+0x30>
  401149:	bf 68 40 40 00       	mov    $0x404068,%edi
  40114e:	ff e0                	jmp    *%rax
  401150:	c3                   	ret
  401151:	66 66 2e 0f 1f 84 00 	data16 cs nopw 0x0(%rax,%rax,1)
  401158:	00 00 00 00 
  40115c:	0f 1f 40 00          	nopl   0x0(%rax)

0000000000401160 <__do_global_dtors_aux>:
  401160:	f3 0f 1e fa          	endbr64
  401164:	80 3d 05 2f 00 00 00 	cmpb   $0x0,0x2f05(%rip)        # 404070 <completed.0>
  40116b:	75 13                	jne    401180 <__do_global_dtors_aux+0x20>
  40116d:	55                   	push   %rbp
  40116e:	48 89 e5             	mov    %rsp,%rbp
  401171:	e8 7a ff ff ff       	call   4010f0 <deregister_tm_clones>
  401176:	c6 05 f3 2e 00 00 01 	movb   $0x1,0x2ef3(%rip)        # 404070 <completed.0>
  40117d:	5d                   	pop    %rbp
  40117e:	c3                   	ret
  40117f:	90                   	nop
  401180:	c3                   	ret
  401181:	66 66 2e 0f 1f 84 00 	data16 cs nopw 0x0(%rax,%rax,1)
  401188:	00 00 00 00 
  40118c:	0f 1f 40 00          	nopl   0x0(%rax)

0000000000401190 <frame_dummy>:
  401190:	f3 0f 1e fa          	endbr64
  401194:	eb 8a                	jmp    401120 <register_tm_clones>
  401196:	66 2e 0f 1f 84 00 00 	cs nopw 0x0(%rax,%rax,1)
  40119d:	00 00 00 

00000000004011a0 <win>:
  4011a0:	53                   	push   %rbx
  4011a1:	48 83 ec 40          	sub    $0x40,%rsp
  4011a5:	bf 30 20 40 00       	mov    $0x402030,%edi
  4011aa:	be 39 20 40 00       	mov    $0x402039,%esi
  4011af:	e8 cc fe ff ff       	call   401080 <fopen@plt>
  4011b4:	48 89 e3             	mov    %rsp,%rbx
  4011b7:	48 89 df             	mov    %rbx,%rdi
  4011ba:	be 40 00 00 00       	mov    $0x40,%esi
  4011bf:	48 89 c2             	mov    %rax,%rdx
  4011c2:	e8 89 fe ff ff       	call   401050 <fgets@plt>
  4011c7:	48 89 df             	mov    %rbx,%rdi
  4011ca:	e8 61 fe ff ff       	call   401030 <puts@plt>
  4011cf:	48 8b 3d 92 2e 00 00 	mov    0x2e92(%rip),%rdi        # 404068 <stdout@GLIBC_2.2.5>
  4011d6:	e8 95 fe ff ff       	call   401070 <fflush@plt>
  4011db:	31 ff                	xor    %edi,%edi
  4011dd:	e8 be fe ff ff       	call   4010a0 <exit@plt>
  4011e2:	66 2e 0f 1f 84 00 00 	cs nopw 0x0(%rax,%rax,1)
  4011e9:	00 00 00 
  4011ec:	0f 1f 40 00          	nopl   0x0(%rax)

00000000004011f0 <check_win>:
  4011f0:	50                   	push   %rax
  4011f1:	48 8b 05 80 2e 00 00 	mov    0x2e80(%rip),%rax        # 404078 <x>
  4011f8:	48 63 08             	movslq (%rax),%rcx
  4011fb:	31 c0                	xor    %eax,%eax
  4011fd:	ff d1                	call   *%rcx
  4011ff:	58                   	pop    %rax
  401200:	c3                   	ret
  401201:	66 2e 0f 1f 84 00 00 	cs nopw 0x0(%rax,%rax,1)
  401208:	00 00 00 
  40120b:	0f 1f 44 00 00       	nopl   0x0(%rax,%rax,1)

0000000000401210 <print_menu>:
  401210:	50                   	push   %rax
  401211:	bf 3b 20 40 00       	mov    $0x40203b,%edi
  401216:	31 c0                	xor    %eax,%eax
  401218:	e8 23 fe ff ff       	call   401040 <printf@plt>
  40121d:	48 8b 3d 44 2e 00 00 	mov    0x2e44(%rip),%rdi        # 404068 <stdout@GLIBC_2.2.5>
  401224:	e8 47 fe ff ff       	call   401070 <fflush@plt>
  401229:	58                   	pop    %rax
  40122a:	c3                   	ret
  40122b:	0f 1f 44 00 00       	nopl   0x0(%rax,%rax,1)

0000000000401230 <init>:
  401230:	50                   	push   %rax
  401231:	bf d3 20 40 00       	mov    $0x4020d3,%edi
  401236:	e8 f5 fd ff ff       	call   401030 <puts@plt>
  40123b:	48 8b 3d 26 2e 00 00 	mov    0x2e26(%rip),%rdi        # 404068 <stdout@GLIBC_2.2.5>
  401242:	e8 29 fe ff ff       	call   401070 <fflush@plt>
  401247:	bf 05 00 00 00       	mov    $0x5,%edi
  40124c:	e8 0f fe ff ff       	call   401060 <malloc@plt>
  401251:	48 89 05 28 2e 00 00 	mov    %rax,0x2e28(%rip)        # 404080 <input_data>
  401258:	c7 00 70 69 63 6f    	movl   $0x6f636970,(%rax)
  40125e:	c6 40 04 00          	movb   $0x0,0x4(%rax)
  401262:	bf 05 00 00 00       	mov    $0x5,%edi
  401267:	e8 f4 fd ff ff       	call   401060 <malloc@plt>
  40126c:	48 89 05 05 2e 00 00 	mov    %rax,0x2e05(%rip)        # 404078 <x>
  401273:	c7 00 62 69 63 6f    	movl   $0x6f636962,(%rax)
  401279:	c6 40 04 00          	movb   $0x0,0x4(%rax)
  40127d:	58                   	pop    %rax
  40127e:	c3                   	ret
  40127f:	90                   	nop

0000000000401280 <write_buffer>:
  401280:	50                   	push   %rax
  401281:	bf 9d 20 40 00       	mov    $0x40209d,%edi
  401286:	31 c0                	xor    %eax,%eax
  401288:	e8 b3 fd ff ff       	call   401040 <printf@plt>
  40128d:	48 8b 3d d4 2d 00 00 	mov    0x2dd4(%rip),%rdi        # 404068 <stdout@GLIBC_2.2.5>
  401294:	e8 d7 fd ff ff       	call   401070 <fflush@plt>
  401299:	48 8b 35 e0 2d 00 00 	mov    0x2de0(%rip),%rsi        # 404080 <input_data>
  4012a0:	bf af 20 40 00       	mov    $0x4020af,%edi
  4012a5:	31 c0                	xor    %eax,%eax
  4012a7:	e8 e4 fd ff ff       	call   401090 <__isoc99_scanf@plt>
  4012ac:	58                   	pop    %rax
  4012ad:	c3                   	ret
  4012ae:	66 90                	xchg   %ax,%ax

00000000004012b0 <print_heap>:
  4012b0:	50                   	push   %rax
  4012b1:	bf 1f 21 40 00       	mov    $0x40211f,%edi
  4012b6:	e8 75 fd ff ff       	call   401030 <puts@plt>
  4012bb:	bf 3d 21 40 00       	mov    $0x40213d,%edi
  4012c0:	e8 6b fd ff ff       	call   401030 <puts@plt>
  4012c5:	48 8b 15 b4 2d 00 00 	mov    0x2db4(%rip),%rdx        # 404080 <input_data>
  4012cc:	bf b2 20 40 00       	mov    $0x4020b2,%edi
  4012d1:	48 89 d6             	mov    %rdx,%rsi
  4012d4:	31 c0                	xor    %eax,%eax
  4012d6:	e8 65 fd ff ff       	call   401040 <printf@plt>
  4012db:	bf 3d 21 40 00       	mov    $0x40213d,%edi
  4012e0:	e8 4b fd ff ff       	call   401030 <puts@plt>
  4012e5:	48 8b 15 8c 2d 00 00 	mov    0x2d8c(%rip),%rdx        # 404078 <x>
  4012ec:	bf b2 20 40 00       	mov    $0x4020b2,%edi
  4012f1:	48 89 d6             	mov    %rdx,%rsi
  4012f4:	31 c0                	xor    %eax,%eax
  4012f6:	e8 45 fd ff ff       	call   401040 <printf@plt>
  4012fb:	48 8b 3d 66 2d 00 00 	mov    0x2d66(%rip),%rdi        # 404068 <stdout@GLIBC_2.2.5>
  401302:	e8 69 fd ff ff       	call   401070 <fflush@plt>
  401307:	58                   	pop    %rax
  401308:	c3                   	ret
  401309:	0f 1f 80 00 00 00 00 	nopl   0x0(%rax)

0000000000401310 <main>:
  401310:	53                   	push   %rbx
  401311:	48 83 ec 10          	sub    $0x10,%rsp
  401315:	bf d3 20 40 00       	mov    $0x4020d3,%edi
  40131a:	e8 11 fd ff ff       	call   401030 <puts@plt>
  40131f:	48 8b 3d 42 2d 00 00 	mov    0x2d42(%rip),%rdi        # 404068 <stdout@GLIBC_2.2.5>
  401326:	e8 45 fd ff ff       	call   401070 <fflush@plt>
  40132b:	bf 05 00 00 00       	mov    $0x5,%edi
  401330:	e8 2b fd ff ff       	call   401060 <malloc@plt>
  401335:	48 89 05 44 2d 00 00 	mov    %rax,0x2d44(%rip)        # 404080 <input_data>
  40133c:	c7 00 70 69 63 6f    	movl   $0x6f636970,(%rax)
  401342:	c6 40 04 00          	movb   $0x0,0x4(%rax)
  401346:	bf 05 00 00 00       	mov    $0x5,%edi
  40134b:	e8 10 fd ff ff       	call   401060 <malloc@plt>
  401350:	48 89 05 21 2d 00 00 	mov    %rax,0x2d21(%rip)        # 404078 <x>
  401357:	c7 00 62 69 63 6f    	movl   $0x6f636962,(%rax)
  40135d:	c6 40 04 00          	movb   $0x0,0x4(%rax)
  401361:	bf 3b 20 40 00       	mov    $0x40203b,%edi
  401366:	31 c0                	xor    %eax,%eax
  401368:	e8 d3 fc ff ff       	call   401040 <printf@plt>
  40136d:	48 8b 3d f4 2c 00 00 	mov    0x2cf4(%rip),%rdi        # 404068 <stdout@GLIBC_2.2.5>
  401374:	e8 f7 fc ff ff       	call   401070 <fflush@plt>
  401379:	48 8d 74 24 0c       	lea    0xc(%rsp),%rsi
  40137e:	bf c5 20 40 00       	mov    $0x4020c5,%edi
  401383:	31 c0                	xor    %eax,%eax
  401385:	e8 06 fd ff ff       	call   401090 <__isoc99_scanf@plt>
  40138a:	83 f8 01             	cmp    $0x1,%eax
  40138d:	0f 85 12 01 00 00    	jne    4014a5 <main+0x195>
  401393:	48 8d 5c 24 0c       	lea    0xc(%rsp),%rbx
  401398:	eb 46                	jmp    4013e0 <main+0xd0>
  40139a:	bf 59 21 40 00       	mov    $0x402159,%edi
  40139f:	e8 8c fc ff ff       	call   401030 <puts@plt>
  4013a4:	48 8b 3d bd 2c 00 00 	mov    0x2cbd(%rip),%rdi        # 404068 <stdout@GLIBC_2.2.5>
  4013ab:	e8 c0 fc ff ff       	call   401070 <fflush@plt>
  4013b0:	bf 3b 20 40 00       	mov    $0x40203b,%edi
  4013b5:	31 c0                	xor    %eax,%eax
  4013b7:	e8 84 fc ff ff       	call   401040 <printf@plt>
  4013bc:	48 8b 3d a5 2c 00 00 	mov    0x2ca5(%rip),%rdi        # 404068 <stdout@GLIBC_2.2.5>
  4013c3:	e8 a8 fc ff ff       	call   401070 <fflush@plt>
  4013c8:	bf c5 20 40 00       	mov    $0x4020c5,%edi
  4013cd:	48 89 de             	mov    %rbx,%rsi
  4013d0:	31 c0                	xor    %eax,%eax
  4013d2:	e8 b9 fc ff ff       	call   401090 <__isoc99_scanf@plt>
  4013d7:	83 f8 01             	cmp    $0x1,%eax
  4013da:	0f 85 c5 00 00 00    	jne    4014a5 <main+0x195>
  4013e0:	8b 44 24 0c          	mov    0xc(%rsp),%eax
  4013e4:	83 c0 ff             	add    $0xffffffff,%eax
  4013e7:	83 f8 04             	cmp    $0x4,%eax
  4013ea:	77 ae                	ja     40139a <main+0x8a>
  4013ec:	ff 24 c5 08 20 40 00 	jmp    *0x402008(,%rax,8)
  4013f3:	bf 1f 21 40 00       	mov    $0x40211f,%edi
  4013f8:	e8 33 fc ff ff       	call   401030 <puts@plt>
  4013fd:	bf 3d 21 40 00       	mov    $0x40213d,%edi
  401402:	e8 29 fc ff ff       	call   401030 <puts@plt>
  401407:	48 8b 15 72 2c 00 00 	mov    0x2c72(%rip),%rdx        # 404080 <input_data>
  40140e:	bf b2 20 40 00       	mov    $0x4020b2,%edi
  401413:	48 89 d6             	mov    %rdx,%rsi
  401416:	31 c0                	xor    %eax,%eax
  401418:	e8 23 fc ff ff       	call   401040 <printf@plt>
  40141d:	bf 3d 21 40 00       	mov    $0x40213d,%edi
  401422:	e8 09 fc ff ff       	call   401030 <puts@plt>
  401427:	48 8b 15 4a 2c 00 00 	mov    0x2c4a(%rip),%rdx        # 404078 <x>
  40142e:	bf b2 20 40 00       	mov    $0x4020b2,%edi
  401433:	48 89 d6             	mov    %rdx,%rsi
  401436:	31 c0                	xor    %eax,%eax
  401438:	e8 03 fc ff ff       	call   401040 <printf@plt>
  40143d:	e9 62 ff ff ff       	jmp    4013a4 <main+0x94>
  401442:	bf 9d 20 40 00       	mov    $0x40209d,%edi
  401447:	31 c0                	xor    %eax,%eax
  401449:	e8 f2 fb ff ff       	call   401040 <printf@plt>
  40144e:	48 8b 3d 13 2c 00 00 	mov    0x2c13(%rip),%rdi        # 404068 <stdout@GLIBC_2.2.5>
  401455:	e8 16 fc ff ff       	call   401070 <fflush@plt>
  40145a:	48 8b 35 1f 2c 00 00 	mov    0x2c1f(%rip),%rsi        # 404080 <input_data>
  401461:	bf af 20 40 00       	mov    $0x4020af,%edi
  401466:	31 c0                	xor    %eax,%eax
  401468:	e8 23 fc ff ff       	call   401090 <__isoc99_scanf@plt>
  40146d:	e9 3e ff ff ff       	jmp    4013b0 <main+0xa0>
  401472:	48 8b 35 ff 2b 00 00 	mov    0x2bff(%rip),%rsi        # 404078 <x>
  401479:	bf c8 20 40 00       	mov    $0x4020c8,%edi
  40147e:	31 c0                	xor    %eax,%eax
  401480:	e8 bb fb ff ff       	call   401040 <printf@plt>
  401485:	e9 1a ff ff ff       	jmp    4013a4 <main+0x94>
  40148a:	48 8b 05 e7 2b 00 00 	mov    0x2be7(%rip),%rax        # 404078 <x>
  401491:	48 63 08             	movslq (%rax),%rcx
  401494:	31 c0                	xor    %eax,%eax
  401496:	ff d1                	call   *%rcx
  401498:	e9 13 ff ff ff       	jmp    4013b0 <main+0xa0>
  40149d:	31 c0                	xor    %eax,%eax
  40149f:	48 83 c4 10          	add    $0x10,%rsp
  4014a3:	5b                   	pop    %rbx
  4014a4:	c3                   	ret
  4014a5:	31 ff                	xor    %edi,%edi
  4014a7:	e8 f4 fb ff ff       	call   4010a0 <exit@plt>

Disassembly of section .fini:

00000000004014ac <_fini>:
  4014ac:	f3 0f 1e fa          	endbr64
  4014b0:	48 83 ec 08          	sub    $0x8,%rsp
  4014b4:	48 83 c4 08          	add    $0x8,%rsp
  4014b8:	c3                   	ret
